
app.bin:     file format elf32-littlemips


Disassembly of section seg_code:

00400000 <main>:
  400000:	3c080100 	lui	t0,0x100
  400004:	2508007c 	addiu	t0,t0,124
  400008:	24070014 	li	a3,20
  40000c:	24060000 	li	a2,0

00400010 <loop>:
  400010:	8d0a0000 	lw	t2,0(t0)
  400014:	8d0b0080 	lw	t3,128(t0)
  400018:	20c60001 	addi	a2,a2,1
  40001c:	21080004 	addi	t0,t0,4
  400020:	014b6020 	add	t4,t2,t3
  400024:	14c7fffa 	bne	a2,a3,400010 <loop>
  400028:	ad0c00fc 	sw	t4,252(t0)

0040002c <print>:
  40002c:	3c040040 	lui	a0,0x40
  400030:	2484004c 	addiu	a0,a0,76
  400034:	23bdfffc 	addi	sp,sp,-4
  400038:	0c100076 	jal	4001d8 <tty_puts>
  40003c:	00000000 	nop
  400040:	23bd0004 	addi	sp,sp,4

00400044 <suicide>:
  400044:	0c10048d 	jal	401234 <exit>
  400048:	00000000 	nop

0040004c <message>:
  40004c:	2121210a 	addi	at,t1,8458
  400050:	63657620 	0x63657620
  400054:	20726f74 	addi	s2,v1,28532
  400058:	206d7573 	addi	t5,v1,30067
  40005c:	706d6f63 	0x706d6f63
  400060:	6574656c 	0x6574656c
  400064:	21212064 	addi	at,t1,8292
  400068:	00000a21 	0xa21

0040006c <sys_call>:
  40006c:	27bdfff8 	addiu	sp,sp,-8
  400070:	afbf0004 	sw	ra,4(sp)
  400074:	afbe0000 	sw	s8,0(sp)
  400078:	03a0f025 	move	s8,sp
  40007c:	afc40008 	sw	a0,8(s8)
  400080:	afc5000c 	sw	a1,12(s8)
  400084:	afc60010 	sw	a2,16(s8)
  400088:	afc70014 	sw	a3,20(s8)
  40008c:	8fc20008 	lw	v0,8(s8)
  400090:	8fc4000c 	lw	a0,12(s8)
  400094:	8fc50010 	lw	a1,16(s8)
  400098:	8fc60014 	lw	a2,20(s8)
  40009c:	8fc70018 	lw	a3,24(s8)
  4000a0:	0000000c 	syscall
  4000a4:	03c0e825 	move	sp,s8
  4000a8:	8fbf0004 	lw	ra,4(sp)
  4000ac:	8fbe0000 	lw	s8,0(sp)
  4000b0:	27bd0008 	addiu	sp,sp,8
  4000b4:	03e00008 	jr	ra
  4000b8:	00000000 	nop

004000bc <procid>:
  4000bc:	27bdffe0 	addiu	sp,sp,-32
  4000c0:	afbf001c 	sw	ra,28(sp)
  4000c4:	afbe0018 	sw	s8,24(sp)
  4000c8:	03a0f025 	move	s8,sp
  4000cc:	afa00010 	sw	zero,16(sp)
  4000d0:	00003825 	move	a3,zero
  4000d4:	00003025 	move	a2,zero
  4000d8:	00002825 	move	a1,zero
  4000dc:	00002025 	move	a0,zero
  4000e0:	0c10001b 	jal	40006c <sys_call>
  4000e4:	00000000 	nop
  4000e8:	03c0e825 	move	sp,s8
  4000ec:	8fbf001c 	lw	ra,28(sp)
  4000f0:	8fbe0018 	lw	s8,24(sp)
  4000f4:	27bd0020 	addiu	sp,sp,32
  4000f8:	03e00008 	jr	ra
  4000fc:	00000000 	nop

00400100 <proctime>:
  400100:	27bdffe0 	addiu	sp,sp,-32
  400104:	afbf001c 	sw	ra,28(sp)
  400108:	afbe0018 	sw	s8,24(sp)
  40010c:	03a0f025 	move	s8,sp
  400110:	afa00010 	sw	zero,16(sp)
  400114:	00003825 	move	a3,zero
  400118:	00003025 	move	a2,zero
  40011c:	00002825 	move	a1,zero
  400120:	24040001 	li	a0,1
  400124:	0c10001b 	jal	40006c <sys_call>
  400128:	00000000 	nop
  40012c:	03c0e825 	move	sp,s8
  400130:	8fbf001c 	lw	ra,28(sp)
  400134:	8fbe0018 	lw	s8,24(sp)
  400138:	27bd0020 	addiu	sp,sp,32
  40013c:	03e00008 	jr	ra
  400140:	00000000 	nop

00400144 <procnumber>:
  400144:	27bdffe0 	addiu	sp,sp,-32
  400148:	afbf001c 	sw	ra,28(sp)
  40014c:	afbe0018 	sw	s8,24(sp)
  400150:	03a0f025 	move	s8,sp
  400154:	afa00010 	sw	zero,16(sp)
  400158:	00003825 	move	a3,zero
  40015c:	00003025 	move	a2,zero
  400160:	00002825 	move	a1,zero
  400164:	2404000f 	li	a0,15
  400168:	0c10001b 	jal	40006c <sys_call>
  40016c:	00000000 	nop
  400170:	03c0e825 	move	sp,s8
  400174:	8fbf001c 	lw	ra,28(sp)
  400178:	8fbe0018 	lw	s8,24(sp)
  40017c:	27bd0020 	addiu	sp,sp,32
  400180:	03e00008 	jr	ra
  400184:	00000000 	nop

00400188 <tty_putc>:
  400188:	27bdffe0 	addiu	sp,sp,-32
  40018c:	afbf001c 	sw	ra,28(sp)
  400190:	afbe0018 	sw	s8,24(sp)
  400194:	03a0f025 	move	s8,sp
  400198:	00801025 	move	v0,a0
  40019c:	a3c20020 	sb	v0,32(s8)
  4001a0:	27c20020 	addiu	v0,s8,32
  4001a4:	afa00010 	sw	zero,16(sp)
  4001a8:	00003825 	move	a3,zero
  4001ac:	24060001 	li	a2,1
  4001b0:	00402825 	move	a1,v0
  4001b4:	24040002 	li	a0,2
  4001b8:	0c10001b 	jal	40006c <sys_call>
  4001bc:	00000000 	nop
  4001c0:	03c0e825 	move	sp,s8
  4001c4:	8fbf001c 	lw	ra,28(sp)
  4001c8:	8fbe0018 	lw	s8,24(sp)
  4001cc:	27bd0020 	addiu	sp,sp,32
  4001d0:	03e00008 	jr	ra
  4001d4:	00000000 	nop

004001d8 <tty_puts>:
  4001d8:	27bdffd8 	addiu	sp,sp,-40
  4001dc:	afbf0024 	sw	ra,36(sp)
  4001e0:	afbe0020 	sw	s8,32(sp)
  4001e4:	03a0f025 	move	s8,sp
  4001e8:	afc40028 	sw	a0,40(s8)
  4001ec:	afc00018 	sw	zero,24(s8)
  4001f0:	10000004 	b	400204 <tty_puts+0x2c>
  4001f4:	00000000 	nop
  4001f8:	8fc20018 	lw	v0,24(s8)
  4001fc:	24420001 	addiu	v0,v0,1
  400200:	afc20018 	sw	v0,24(s8)
  400204:	8fc30028 	lw	v1,40(s8)
  400208:	8fc20018 	lw	v0,24(s8)
  40020c:	00621021 	addu	v0,v1,v0
  400210:	80420000 	lb	v0,0(v0)
  400214:	1440fff8 	bnez	v0,4001f8 <tty_puts+0x20>
  400218:	00000000 	nop
  40021c:	8fc20028 	lw	v0,40(s8)
  400220:	afa00010 	sw	zero,16(sp)
  400224:	00003825 	move	a3,zero
  400228:	8fc60018 	lw	a2,24(s8)
  40022c:	00402825 	move	a1,v0
  400230:	24040002 	li	a0,2
  400234:	0c10001b 	jal	40006c <sys_call>
  400238:	00000000 	nop
  40023c:	03c0e825 	move	sp,s8
  400240:	8fbf0024 	lw	ra,36(sp)
  400244:	8fbe0020 	lw	s8,32(sp)
  400248:	27bd0028 	addiu	sp,sp,40
  40024c:	03e00008 	jr	ra
  400250:	00000000 	nop

00400254 <tty_putw>:
  400254:	27bdffd0 	addiu	sp,sp,-48
  400258:	afbf002c 	sw	ra,44(sp)
  40025c:	afbe0028 	sw	s8,40(sp)
  400260:	03a0f025 	move	s8,sp
  400264:	afc40030 	sw	a0,48(s8)
  400268:	afc00018 	sw	zero,24(s8)
  40026c:	10000021 	b	4002f4 <tty_putw+0xa0>
  400270:	00000000 	nop
  400274:	8fc40030 	lw	a0,48(s8)
  400278:	3c02cccc 	lui	v0,0xcccc
  40027c:	3442cccd 	ori	v0,v0,0xcccd
  400280:	00820019 	multu	a0,v0
  400284:	00001010 	mfhi	v0
  400288:	000218c2 	srl	v1,v0,0x3
  40028c:	00601025 	move	v0,v1
  400290:	00021080 	sll	v0,v0,0x2
  400294:	00431021 	addu	v0,v0,v1
  400298:	00021040 	sll	v0,v0,0x1
  40029c:	00821823 	subu	v1,a0,v0
  4002a0:	306200ff 	andi	v0,v1,0xff
  4002a4:	24420030 	addiu	v0,v0,48
  4002a8:	304400ff 	andi	a0,v0,0xff
  4002ac:	24030009 	li	v1,9
  4002b0:	8fc20018 	lw	v0,24(s8)
  4002b4:	00621023 	subu	v0,v1,v0
  4002b8:	00041e00 	sll	v1,a0,0x18
  4002bc:	00031e03 	sra	v1,v1,0x18
  4002c0:	27c40018 	addiu	a0,s8,24
  4002c4:	00821021 	addu	v0,a0,v0
  4002c8:	a0430004 	sb	v1,4(v0)
  4002cc:	8fc30030 	lw	v1,48(s8)
  4002d0:	3c02cccc 	lui	v0,0xcccc
  4002d4:	3442cccd 	ori	v0,v0,0xcccd
  4002d8:	00620019 	multu	v1,v0
  4002dc:	00001010 	mfhi	v0
  4002e0:	000210c2 	srl	v0,v0,0x3
  4002e4:	afc20030 	sw	v0,48(s8)
  4002e8:	8fc20018 	lw	v0,24(s8)
  4002ec:	24420001 	addiu	v0,v0,1
  4002f0:	afc20018 	sw	v0,24(s8)
  4002f4:	8fc20018 	lw	v0,24(s8)
  4002f8:	2c42000a 	sltiu	v0,v0,10
  4002fc:	1440ffdd 	bnez	v0,400274 <tty_putw+0x20>
  400300:	00000000 	nop
  400304:	27c2001c 	addiu	v0,s8,28
  400308:	afa00010 	sw	zero,16(sp)
  40030c:	00003825 	move	a3,zero
  400310:	2406000a 	li	a2,10
  400314:	00402825 	move	a1,v0
  400318:	24040002 	li	a0,2
  40031c:	0c10001b 	jal	40006c <sys_call>
  400320:	00000000 	nop
  400324:	03c0e825 	move	sp,s8
  400328:	8fbf002c 	lw	ra,44(sp)
  40032c:	8fbe0028 	lw	s8,40(sp)
  400330:	27bd0030 	addiu	sp,sp,48
  400334:	03e00008 	jr	ra
  400338:	00000000 	nop

0040033c <tty_getc>:
  40033c:	27bdffd8 	addiu	sp,sp,-40
  400340:	afbf0024 	sw	ra,36(sp)
  400344:	afbe0020 	sw	s8,32(sp)
  400348:	03a0f025 	move	s8,sp
  40034c:	afc40028 	sw	a0,40(s8)
  400350:	afc00018 	sw	zero,24(s8)
  400354:	1000000a 	b	400380 <tty_getc+0x44>
  400358:	00000000 	nop
  40035c:	8fc20028 	lw	v0,40(s8)
  400360:	afa00010 	sw	zero,16(sp)
  400364:	00003825 	move	a3,zero
  400368:	24060001 	li	a2,1
  40036c:	00402825 	move	a1,v0
  400370:	24040003 	li	a0,3
  400374:	0c10001b 	jal	40006c <sys_call>
  400378:	00000000 	nop
  40037c:	afc20018 	sw	v0,24(s8)
  400380:	8fc20018 	lw	v0,24(s8)
  400384:	1040fff5 	beqz	v0,40035c <tty_getc+0x20>
  400388:	00000000 	nop
  40038c:	00001025 	move	v0,zero
  400390:	03c0e825 	move	sp,s8
  400394:	8fbf0024 	lw	ra,36(sp)
  400398:	8fbe0020 	lw	s8,32(sp)
  40039c:	27bd0028 	addiu	sp,sp,40
  4003a0:	03e00008 	jr	ra
  4003a4:	00000000 	nop

004003a8 <tty_getc_irq>:
  4003a8:	27bdffd8 	addiu	sp,sp,-40
  4003ac:	afbf0024 	sw	ra,36(sp)
  4003b0:	afbe0020 	sw	s8,32(sp)
  4003b4:	03a0f025 	move	s8,sp
  4003b8:	afc40028 	sw	a0,40(s8)
  4003bc:	afc00018 	sw	zero,24(s8)
  4003c0:	1000000a 	b	4003ec <tty_getc_irq+0x44>
  4003c4:	00000000 	nop
  4003c8:	8fc20028 	lw	v0,40(s8)
  4003cc:	afa00010 	sw	zero,16(sp)
  4003d0:	00003825 	move	a3,zero
  4003d4:	24060001 	li	a2,1
  4003d8:	00402825 	move	a1,v0
  4003dc:	2404000a 	li	a0,10
  4003e0:	0c10001b 	jal	40006c <sys_call>
  4003e4:	00000000 	nop
  4003e8:	afc20018 	sw	v0,24(s8)
  4003ec:	8fc20018 	lw	v0,24(s8)
  4003f0:	1040fff5 	beqz	v0,4003c8 <tty_getc_irq+0x20>
  4003f4:	00000000 	nop
  4003f8:	00001025 	move	v0,zero
  4003fc:	03c0e825 	move	sp,s8
  400400:	8fbf0024 	lw	ra,36(sp)
  400404:	8fbe0020 	lw	s8,32(sp)
  400408:	27bd0028 	addiu	sp,sp,40
  40040c:	03e00008 	jr	ra
  400410:	00000000 	nop

00400414 <tty_gets_irq>:
  400414:	27bdffd0 	addiu	sp,sp,-48
  400418:	afbf002c 	sw	ra,44(sp)
  40041c:	afbe0028 	sw	s8,40(sp)
  400420:	03a0f025 	move	s8,sp
  400424:	afc40030 	sw	a0,48(s8)
  400428:	afc50034 	sw	a1,52(s8)
  40042c:	afc00018 	sw	zero,24(s8)
  400430:	10000028 	b	4004d4 <tty_gets_irq+0xc0>
  400434:	00000000 	nop
  400438:	27c20020 	addiu	v0,s8,32
  40043c:	afa00010 	sw	zero,16(sp)
  400440:	00003825 	move	a3,zero
  400444:	24060001 	li	a2,1
  400448:	00402825 	move	a1,v0
  40044c:	2404000a 	li	a0,10
  400450:	0c10001b 	jal	40006c <sys_call>
  400454:	00000000 	nop
  400458:	afc2001c 	sw	v0,28(s8)
  40045c:	8fc3001c 	lw	v1,28(s8)
  400460:	24020001 	li	v0,1
  400464:	1462fff4 	bne	v1,v0,400438 <tty_gets_irq+0x24>
  400468:	00000000 	nop
  40046c:	93c30020 	lbu	v1,32(s8)
  400470:	2402000a 	li	v0,10
  400474:	1062001f 	beq	v1,v0,4004f4 <tty_gets_irq+0xe0>
  400478:	00000000 	nop
  40047c:	93c30020 	lbu	v1,32(s8)
  400480:	2402007f 	li	v0,127
  400484:	14620009 	bne	v1,v0,4004ac <tty_gets_irq+0x98>
  400488:	00000000 	nop
  40048c:	8fc20018 	lw	v0,24(s8)
  400490:	10400006 	beqz	v0,4004ac <tty_gets_irq+0x98>
  400494:	00000000 	nop
  400498:	8fc20018 	lw	v0,24(s8)
  40049c:	2442ffff 	addiu	v0,v0,-1
  4004a0:	afc20018 	sw	v0,24(s8)
  4004a4:	1000000b 	b	4004d4 <tty_gets_irq+0xc0>
  4004a8:	00000000 	nop
  4004ac:	93c40020 	lbu	a0,32(s8)
  4004b0:	8fc30030 	lw	v1,48(s8)
  4004b4:	8fc20018 	lw	v0,24(s8)
  4004b8:	00621021 	addu	v0,v1,v0
  4004bc:	00041e00 	sll	v1,a0,0x18
  4004c0:	00031e03 	sra	v1,v1,0x18
  4004c4:	a0430000 	sb	v1,0(v0)
  4004c8:	8fc20018 	lw	v0,24(s8)
  4004cc:	24420001 	addiu	v0,v0,1
  4004d0:	afc20018 	sw	v0,24(s8)
  4004d4:	8fc20034 	lw	v0,52(s8)
  4004d8:	2442ffff 	addiu	v0,v0,-1
  4004dc:	8fc30018 	lw	v1,24(s8)
  4004e0:	0062102b 	sltu	v0,v1,v0
  4004e4:	1440ffd4 	bnez	v0,400438 <tty_gets_irq+0x24>
  4004e8:	00000000 	nop
  4004ec:	10000002 	b	4004f8 <tty_gets_irq+0xe4>
  4004f0:	00000000 	nop
  4004f4:	00000000 	nop
  4004f8:	8fc30030 	lw	v1,48(s8)
  4004fc:	8fc20018 	lw	v0,24(s8)
  400500:	00621021 	addu	v0,v1,v0
  400504:	a0400000 	sb	zero,0(v0)
  400508:	00001025 	move	v0,zero
  40050c:	03c0e825 	move	sp,s8
  400510:	8fbf002c 	lw	ra,44(sp)
  400514:	8fbe0028 	lw	s8,40(sp)
  400518:	27bd0030 	addiu	sp,sp,48
  40051c:	03e00008 	jr	ra
  400520:	00000000 	nop

00400524 <tty_getw_irq>:
  400524:	27bdffa0 	addiu	sp,sp,-96
  400528:	afbf005c 	sw	ra,92(sp)
  40052c:	afbe0058 	sw	s8,88(sp)
  400530:	03a0f025 	move	s8,sp
  400534:	afc40060 	sw	a0,96(s8)
  400538:	afc00018 	sw	zero,24(s8)
  40053c:	afc0001c 	sw	zero,28(s8)
  400540:	afc00020 	sw	zero,32(s8)
  400544:	afc00024 	sw	zero,36(s8)
  400548:	afc00028 	sw	zero,40(s8)
  40054c:	10000065 	b	4006e4 <tty_getw_irq+0x1c0>
  400550:	00000000 	nop
  400554:	27c20054 	addiu	v0,s8,84
  400558:	afa00010 	sw	zero,16(sp)
  40055c:	00003825 	move	a3,zero
  400560:	24060001 	li	a2,1
  400564:	00402825 	move	a1,v0
  400568:	2404000a 	li	a0,10
  40056c:	0c10001b 	jal	40006c <sys_call>
  400570:	00000000 	nop
  400574:	afc20030 	sw	v0,48(s8)
  400578:	8fc30030 	lw	v1,48(s8)
  40057c:	24020001 	li	v0,1
  400580:	1462fff4 	bne	v1,v0,400554 <tty_getw_irq+0x30>
  400584:	00000000 	nop
  400588:	93c20054 	lbu	v0,84(s8)
  40058c:	2c420030 	sltiu	v0,v0,48
  400590:	14400015 	bnez	v0,4005e8 <tty_getw_irq+0xc4>
  400594:	00000000 	nop
  400598:	93c20054 	lbu	v0,84(s8)
  40059c:	2c42003a 	sltiu	v0,v0,58
  4005a0:	10400011 	beqz	v0,4005e8 <tty_getw_irq+0xc4>
  4005a4:	00000000 	nop
  4005a8:	93c30054 	lbu	v1,84(s8)
  4005ac:	8fc20028 	lw	v0,40(s8)
  4005b0:	27c40018 	addiu	a0,s8,24
  4005b4:	00821021 	addu	v0,a0,v0
  4005b8:	a043001c 	sb	v1,28(v0)
  4005bc:	8fc20028 	lw	v0,40(s8)
  4005c0:	24420001 	addiu	v0,v0,1
  4005c4:	afc20028 	sw	v0,40(s8)
  4005c8:	93c20054 	lbu	v0,84(s8)
  4005cc:	00021600 	sll	v0,v0,0x18
  4005d0:	00021603 	sra	v0,v0,0x18
  4005d4:	00402025 	move	a0,v0
  4005d8:	0c100062 	jal	400188 <tty_putc>
  4005dc:	00000000 	nop
  4005e0:	10000020 	b	400664 <tty_getw_irq+0x140>
  4005e4:	00000000 	nop
  4005e8:	93c30054 	lbu	v1,84(s8)
  4005ec:	2402000a 	li	v0,10
  4005f0:	10620005 	beq	v1,v0,400608 <tty_getw_irq+0xe4>
  4005f4:	00000000 	nop
  4005f8:	93c30054 	lbu	v1,84(s8)
  4005fc:	2402000d 	li	v0,13
  400600:	14620005 	bne	v1,v0,400618 <tty_getw_irq+0xf4>
  400604:	00000000 	nop
  400608:	24020001 	li	v0,1
  40060c:	afc20020 	sw	v0,32(s8)
  400610:	10000014 	b	400664 <tty_getw_irq+0x140>
  400614:	00000000 	nop
  400618:	93c30054 	lbu	v1,84(s8)
  40061c:	2402007f 	li	v0,127
  400620:	14620010 	bne	v1,v0,400664 <tty_getw_irq+0x140>
  400624:	00000000 	nop
  400628:	8fc20028 	lw	v0,40(s8)
  40062c:	1040000d 	beqz	v0,400664 <tty_getw_irq+0x140>
  400630:	00000000 	nop
  400634:	8fc20028 	lw	v0,40(s8)
  400638:	2442ffff 	addiu	v0,v0,-1
  40063c:	afc20028 	sw	v0,40(s8)
  400640:	24040008 	li	a0,8
  400644:	0c100062 	jal	400188 <tty_putc>
  400648:	00000000 	nop
  40064c:	24040020 	li	a0,32
  400650:	0c100062 	jal	400188 <tty_putc>
  400654:	00000000 	nop
  400658:	24040008 	li	a0,8
  40065c:	0c100062 	jal	400188 <tty_putc>
  400660:	00000000 	nop
  400664:	8fc30028 	lw	v1,40(s8)
  400668:	24020020 	li	v0,32
  40066c:	1462001d 	bne	v1,v0,4006e4 <tty_getw_irq+0x1c0>
  400670:	00000000 	nop
  400674:	afc0002c 	sw	zero,44(s8)
  400678:	1000000d 	b	4006b0 <tty_getw_irq+0x18c>
  40067c:	00000000 	nop
  400680:	24040008 	li	a0,8
  400684:	0c100062 	jal	400188 <tty_putc>
  400688:	00000000 	nop
  40068c:	24040020 	li	a0,32
  400690:	0c100062 	jal	400188 <tty_putc>
  400694:	00000000 	nop
  400698:	24040008 	li	a0,8
  40069c:	0c100062 	jal	400188 <tty_putc>
  4006a0:	00000000 	nop
  4006a4:	8fc2002c 	lw	v0,44(s8)
  4006a8:	24420001 	addiu	v0,v0,1
  4006ac:	afc2002c 	sw	v0,44(s8)
  4006b0:	8fc3002c 	lw	v1,44(s8)
  4006b4:	8fc20028 	lw	v0,40(s8)
  4006b8:	0062102b 	sltu	v0,v1,v0
  4006bc:	1440fff0 	bnez	v0,400680 <tty_getw_irq+0x15c>
  4006c0:	00000000 	nop
  4006c4:	24040030 	li	a0,48
  4006c8:	0c100062 	jal	400188 <tty_putc>
  4006cc:	00000000 	nop
  4006d0:	8fc20060 	lw	v0,96(s8)
  4006d4:	ac400000 	sw	zero,0(v0)
  4006d8:	00001025 	move	v0,zero
  4006dc:	10000047 	b	4007fc <tty_getw_irq+0x2d8>
  4006e0:	00000000 	nop
  4006e4:	8fc20020 	lw	v0,32(s8)
  4006e8:	1040ff9a 	beqz	v0,400554 <tty_getw_irq+0x30>
  4006ec:	00000000 	nop
  4006f0:	afc0002c 	sw	zero,44(s8)
  4006f4:	1000001a 	b	400760 <tty_getw_irq+0x23c>
  4006f8:	00000000 	nop
  4006fc:	8fc3001c 	lw	v1,28(s8)
  400700:	00601025 	move	v0,v1
  400704:	00021080 	sll	v0,v0,0x2
  400708:	00431021 	addu	v0,v0,v1
  40070c:	00021040 	sll	v0,v0,0x1
  400710:	00401825 	move	v1,v0
  400714:	8fc2002c 	lw	v0,44(s8)
  400718:	27c40018 	addiu	a0,s8,24
  40071c:	00821021 	addu	v0,a0,v0
  400720:	9042001c 	lbu	v0,28(v0)
  400724:	00621021 	addu	v0,v1,v0
  400728:	2442ffd0 	addiu	v0,v0,-48
  40072c:	afc2001c 	sw	v0,28(s8)
  400730:	8fc3001c 	lw	v1,28(s8)
  400734:	8fc20018 	lw	v0,24(s8)
  400738:	0062102b 	sltu	v0,v1,v0
  40073c:	10400003 	beqz	v0,40074c <tty_getw_irq+0x228>
  400740:	00000000 	nop
  400744:	24020001 	li	v0,1
  400748:	afc20024 	sw	v0,36(s8)
  40074c:	8fc2001c 	lw	v0,28(s8)
  400750:	afc20018 	sw	v0,24(s8)
  400754:	8fc2002c 	lw	v0,44(s8)
  400758:	24420001 	addiu	v0,v0,1
  40075c:	afc2002c 	sw	v0,44(s8)
  400760:	8fc3002c 	lw	v1,44(s8)
  400764:	8fc20028 	lw	v0,40(s8)
  400768:	0062102b 	sltu	v0,v1,v0
  40076c:	1440ffe3 	bnez	v0,4006fc <tty_getw_irq+0x1d8>
  400770:	00000000 	nop
  400774:	8fc20024 	lw	v0,36(s8)
  400778:	14400006 	bnez	v0,400794 <tty_getw_irq+0x270>
  40077c:	00000000 	nop
  400780:	8fc20060 	lw	v0,96(s8)
  400784:	8fc3001c 	lw	v1,28(s8)
  400788:	ac430000 	sw	v1,0(v0)
  40078c:	1000001a 	b	4007f8 <tty_getw_irq+0x2d4>
  400790:	00000000 	nop
  400794:	afc0002c 	sw	zero,44(s8)
  400798:	1000000d 	b	4007d0 <tty_getw_irq+0x2ac>
  40079c:	00000000 	nop
  4007a0:	24040008 	li	a0,8
  4007a4:	0c100062 	jal	400188 <tty_putc>
  4007a8:	00000000 	nop
  4007ac:	24040020 	li	a0,32
  4007b0:	0c100062 	jal	400188 <tty_putc>
  4007b4:	00000000 	nop
  4007b8:	24040008 	li	a0,8
  4007bc:	0c100062 	jal	400188 <tty_putc>
  4007c0:	00000000 	nop
  4007c4:	8fc2002c 	lw	v0,44(s8)
  4007c8:	24420001 	addiu	v0,v0,1
  4007cc:	afc2002c 	sw	v0,44(s8)
  4007d0:	8fc3002c 	lw	v1,44(s8)
  4007d4:	8fc20028 	lw	v0,40(s8)
  4007d8:	0062102b 	sltu	v0,v1,v0
  4007dc:	1440fff0 	bnez	v0,4007a0 <tty_getw_irq+0x27c>
  4007e0:	00000000 	nop
  4007e4:	24040030 	li	a0,48
  4007e8:	0c100062 	jal	400188 <tty_putc>
  4007ec:	00000000 	nop
  4007f0:	8fc20060 	lw	v0,96(s8)
  4007f4:	ac400000 	sw	zero,0(v0)
  4007f8:	00001025 	move	v0,zero
  4007fc:	03c0e825 	move	sp,s8
  400800:	8fbf005c 	lw	ra,92(sp)
  400804:	8fbe0058 	lw	s8,88(sp)
  400808:	27bd0060 	addiu	sp,sp,96
  40080c:	03e00008 	jr	ra
  400810:	00000000 	nop

00400814 <tty_printf>:
  400814:	27bdffa8 	addiu	sp,sp,-88
  400818:	afbf0054 	sw	ra,84(sp)
  40081c:	afbe0050 	sw	s8,80(sp)
  400820:	03a0f025 	move	s8,sp
  400824:	afc40058 	sw	a0,88(s8)
  400828:	afc5005c 	sw	a1,92(s8)
  40082c:	afc60060 	sw	a2,96(s8)
  400830:	afc70064 	sw	a3,100(s8)
  400834:	27c2005c 	addiu	v0,s8,92
  400838:	afc20034 	sw	v0,52(s8)
  40083c:	10000044 	b	400950 <tty_printf+0x13c>
  400840:	00000000 	nop
  400844:	afc00018 	sw	zero,24(s8)
  400848:	10000004 	b	40085c <tty_printf+0x48>
  40084c:	00000000 	nop
  400850:	8fc20018 	lw	v0,24(s8)
  400854:	24420001 	addiu	v0,v0,1
  400858:	afc20018 	sw	v0,24(s8)
  40085c:	8fc30058 	lw	v1,88(s8)
  400860:	8fc20018 	lw	v0,24(s8)
  400864:	00621021 	addu	v0,v1,v0
  400868:	80420000 	lb	v0,0(v0)
  40086c:	10400008 	beqz	v0,400890 <tty_printf+0x7c>
  400870:	00000000 	nop
  400874:	8fc30058 	lw	v1,88(s8)
  400878:	8fc20018 	lw	v0,24(s8)
  40087c:	00621021 	addu	v0,v1,v0
  400880:	80430000 	lb	v1,0(v0)
  400884:	24020025 	li	v0,37
  400888:	1462fff1 	bne	v1,v0,400850 <tty_printf+0x3c>
  40088c:	00000000 	nop
  400890:	8fc20018 	lw	v0,24(s8)
  400894:	10400015 	beqz	v0,4008ec <tty_printf+0xd8>
  400898:	00000000 	nop
  40089c:	8fc20058 	lw	v0,88(s8)
  4008a0:	afa00010 	sw	zero,16(sp)
  4008a4:	00003825 	move	a3,zero
  4008a8:	8fc60018 	lw	a2,24(s8)
  4008ac:	00402825 	move	a1,v0
  4008b0:	24040002 	li	a0,2
  4008b4:	0c10001b 	jal	40006c <sys_call>
  4008b8:	00000000 	nop
  4008bc:	afc2002c 	sw	v0,44(s8)
  4008c0:	8fc3002c 	lw	v1,44(s8)
  4008c4:	8fc20018 	lw	v0,24(s8)
  4008c8:	10620004 	beq	v1,v0,4008dc <tty_printf+0xc8>
  4008cc:	00000000 	nop
  4008d0:	24020001 	li	v0,1
  4008d4:	100000e9 	b	400c7c <tty_printf+0x468>
  4008d8:	00000000 	nop
  4008dc:	8fc30058 	lw	v1,88(s8)
  4008e0:	8fc20018 	lw	v0,24(s8)
  4008e4:	00621021 	addu	v0,v1,v0
  4008e8:	afc20058 	sw	v0,88(s8)
  4008ec:	8fc20058 	lw	v0,88(s8)
  4008f0:	80430000 	lb	v1,0(v0)
  4008f4:	24020025 	li	v0,37
  4008f8:	14620015 	bne	v1,v0,400950 <tty_printf+0x13c>
  4008fc:	00000000 	nop
  400900:	8fc20058 	lw	v0,88(s8)
  400904:	24420001 	addiu	v0,v0,1
  400908:	afc20058 	sw	v0,88(s8)
  40090c:	00000000 	nop
  400910:	8fc20034 	lw	v0,52(s8)
  400914:	24430004 	addiu	v1,v0,4
  400918:	afc30034 	sw	v1,52(s8)
  40091c:	8c420000 	lw	v0,0(v0)
  400920:	afc2001c 	sw	v0,28(s8)
  400924:	afc00024 	sw	zero,36(s8)
  400928:	8fc20058 	lw	v0,88(s8)
  40092c:	24430001 	addiu	v1,v0,1
  400930:	afc30058 	sw	v1,88(s8)
  400934:	80420000 	lb	v0,0(v0)
  400938:	2442ff9d 	addiu	v0,v0,-99
  40093c:	2c430016 	sltiu	v1,v0,22
  400940:	106000c8 	beqz	v1,400c64 <tty_printf+0x450>
  400944:	00000000 	nop
  400948:	10000008 	b	40096c <tty_printf+0x158>
  40094c:	00000000 	nop
  400950:	8fc20058 	lw	v0,88(s8)
  400954:	80420000 	lb	v0,0(v0)
  400958:	1440ffba 	bnez	v0,400844 <tty_printf+0x30>
  40095c:	00000000 	nop
  400960:	00001025 	move	v0,zero
  400964:	100000c5 	b	400c7c <tty_printf+0x468>
  400968:	00000000 	nop
  40096c:	00021880 	sll	v1,v0,0x2
  400970:	3c020100 	lui	v0,0x100
  400974:	244201c4 	addiu	v0,v0,452
  400978:	00621021 	addu	v0,v1,v0
  40097c:	8c420000 	lw	v0,0(v0)
  400980:	00400008 	jr	v0
  400984:	00000000 	nop
  400988:	24020001 	li	v0,1
  40098c:	afc20024 	sw	v0,36(s8)
  400990:	8fc2001c 	lw	v0,28(s8)
  400994:	00021600 	sll	v0,v0,0x18
  400998:	00021603 	sra	v0,v0,0x18
  40099c:	a3c20038 	sb	v0,56(s8)
  4009a0:	27c20038 	addiu	v0,s8,56
  4009a4:	afc20020 	sw	v0,32(s8)
  4009a8:	1000009e 	b	400c24 <tty_printf+0x410>
  4009ac:	00000000 	nop
  4009b0:	8fc2001c 	lw	v0,28(s8)
  4009b4:	04410015 	bgez	v0,400a0c <tty_printf+0x1f8>
  4009b8:	00000000 	nop
  4009bc:	8fc2001c 	lw	v0,28(s8)
  4009c0:	00021023 	negu	v0,v0
  4009c4:	afc2001c 	sw	v0,28(s8)
  4009c8:	3c020100 	lui	v0,0x100
  4009cc:	244201bc 	addiu	v0,v0,444
  4009d0:	afa00010 	sw	zero,16(sp)
  4009d4:	00003825 	move	a3,zero
  4009d8:	24060001 	li	a2,1
  4009dc:	00402825 	move	a1,v0
  4009e0:	24040002 	li	a0,2
  4009e4:	0c10001b 	jal	40006c <sys_call>
  4009e8:	00000000 	nop
  4009ec:	afc2002c 	sw	v0,44(s8)
  4009f0:	8fc3002c 	lw	v1,44(s8)
  4009f4:	24020001 	li	v0,1
  4009f8:	10620004 	beq	v1,v0,400a0c <tty_printf+0x1f8>
  4009fc:	00000000 	nop
  400a00:	24020001 	li	v0,1
  400a04:	1000009d 	b	400c7c <tty_printf+0x468>
  400a08:	00000000 	nop
  400a0c:	afc00028 	sw	zero,40(s8)
  400a10:	10000027 	b	400ab0 <tty_printf+0x29c>
  400a14:	00000000 	nop
  400a18:	8fc4001c 	lw	a0,28(s8)
  400a1c:	3c026666 	lui	v0,0x6666
  400a20:	34426667 	ori	v0,v0,0x6667
  400a24:	00820018 	mult	a0,v0
  400a28:	00001010 	mfhi	v0
  400a2c:	00021883 	sra	v1,v0,0x2
  400a30:	000417c3 	sra	v0,a0,0x1f
  400a34:	00621823 	subu	v1,v1,v0
  400a38:	00601025 	move	v0,v1
  400a3c:	00021080 	sll	v0,v0,0x2
  400a40:	00431021 	addu	v0,v0,v1
  400a44:	00021040 	sll	v0,v0,0x1
  400a48:	00821823 	subu	v1,a0,v0
  400a4c:	24040009 	li	a0,9
  400a50:	8fc20028 	lw	v0,40(s8)
  400a54:	00821023 	subu	v0,a0,v0
  400a58:	3c040100 	lui	a0,0x100
  400a5c:	2484021c 	addiu	a0,a0,540
  400a60:	00641821 	addu	v1,v1,a0
  400a64:	80630000 	lb	v1,0(v1)
  400a68:	27c40018 	addiu	a0,s8,24
  400a6c:	00821021 	addu	v0,a0,v0
  400a70:	a0430020 	sb	v1,32(v0)
  400a74:	8fc2001c 	lw	v0,28(s8)
  400a78:	3c036666 	lui	v1,0x6666
  400a7c:	34636667 	ori	v1,v1,0x6667
  400a80:	00430018 	mult	v0,v1
  400a84:	00001810 	mfhi	v1
  400a88:	00031883 	sra	v1,v1,0x2
  400a8c:	000217c3 	sra	v0,v0,0x1f
  400a90:	00621023 	subu	v0,v1,v0
  400a94:	afc2001c 	sw	v0,28(s8)
  400a98:	8fc2001c 	lw	v0,28(s8)
  400a9c:	1040000a 	beqz	v0,400ac8 <tty_printf+0x2b4>
  400aa0:	00000000 	nop
  400aa4:	8fc20028 	lw	v0,40(s8)
  400aa8:	24420001 	addiu	v0,v0,1
  400aac:	afc20028 	sw	v0,40(s8)
  400ab0:	8fc20028 	lw	v0,40(s8)
  400ab4:	2c42000a 	sltiu	v0,v0,10
  400ab8:	1440ffd7 	bnez	v0,400a18 <tty_printf+0x204>
  400abc:	00000000 	nop
  400ac0:	10000002 	b	400acc <tty_printf+0x2b8>
  400ac4:	00000000 	nop
  400ac8:	00000000 	nop
  400acc:	8fc20028 	lw	v0,40(s8)
  400ad0:	24420001 	addiu	v0,v0,1
  400ad4:	afc20024 	sw	v0,36(s8)
  400ad8:	24030009 	li	v1,9
  400adc:	8fc20028 	lw	v0,40(s8)
  400ae0:	00621023 	subu	v0,v1,v0
  400ae4:	27c30038 	addiu	v1,s8,56
  400ae8:	00621021 	addu	v0,v1,v0
  400aec:	afc20020 	sw	v0,32(s8)
  400af0:	1000004c 	b	400c24 <tty_printf+0x410>
  400af4:	00000000 	nop
  400af8:	3c020100 	lui	v0,0x100
  400afc:	244201c0 	addiu	v0,v0,448
  400b00:	afa00010 	sw	zero,16(sp)
  400b04:	00003825 	move	a3,zero
  400b08:	24060002 	li	a2,2
  400b0c:	00402825 	move	a1,v0
  400b10:	24040002 	li	a0,2
  400b14:	0c10001b 	jal	40006c <sys_call>
  400b18:	00000000 	nop
  400b1c:	afc2002c 	sw	v0,44(s8)
  400b20:	8fc3002c 	lw	v1,44(s8)
  400b24:	24020002 	li	v0,2
  400b28:	10620004 	beq	v1,v0,400b3c <tty_printf+0x328>
  400b2c:	00000000 	nop
  400b30:	24020001 	li	v0,1
  400b34:	10000051 	b	400c7c <tty_printf+0x468>
  400b38:	00000000 	nop
  400b3c:	afc00028 	sw	zero,40(s8)
  400b40:	10000016 	b	400b9c <tty_printf+0x388>
  400b44:	00000000 	nop
  400b48:	8fc2001c 	lw	v0,28(s8)
  400b4c:	3044000f 	andi	a0,v0,0xf
  400b50:	24030007 	li	v1,7
  400b54:	8fc20028 	lw	v0,40(s8)
  400b58:	00621023 	subu	v0,v1,v0
  400b5c:	3c030100 	lui	v1,0x100
  400b60:	2463021c 	addiu	v1,v1,540
  400b64:	00831821 	addu	v1,a0,v1
  400b68:	80630000 	lb	v1,0(v1)
  400b6c:	27c40018 	addiu	a0,s8,24
  400b70:	00821021 	addu	v0,a0,v0
  400b74:	a0430020 	sb	v1,32(v0)
  400b78:	8fc2001c 	lw	v0,28(s8)
  400b7c:	00021102 	srl	v0,v0,0x4
  400b80:	afc2001c 	sw	v0,28(s8)
  400b84:	8fc2001c 	lw	v0,28(s8)
  400b88:	1040000a 	beqz	v0,400bb4 <tty_printf+0x3a0>
  400b8c:	00000000 	nop
  400b90:	8fc20028 	lw	v0,40(s8)
  400b94:	24420001 	addiu	v0,v0,1
  400b98:	afc20028 	sw	v0,40(s8)
  400b9c:	8fc20028 	lw	v0,40(s8)
  400ba0:	2c420008 	sltiu	v0,v0,8
  400ba4:	1440ffe8 	bnez	v0,400b48 <tty_printf+0x334>
  400ba8:	00000000 	nop
  400bac:	10000002 	b	400bb8 <tty_printf+0x3a4>
  400bb0:	00000000 	nop
  400bb4:	00000000 	nop
  400bb8:	8fc20028 	lw	v0,40(s8)
  400bbc:	24420001 	addiu	v0,v0,1
  400bc0:	afc20024 	sw	v0,36(s8)
  400bc4:	24030007 	li	v1,7
  400bc8:	8fc20028 	lw	v0,40(s8)
  400bcc:	00621023 	subu	v0,v1,v0
  400bd0:	27c30038 	addiu	v1,s8,56
  400bd4:	00621021 	addu	v0,v1,v0
  400bd8:	afc20020 	sw	v0,32(s8)
  400bdc:	10000011 	b	400c24 <tty_printf+0x410>
  400be0:	00000000 	nop
  400be4:	8fc2001c 	lw	v0,28(s8)
  400be8:	afc20030 	sw	v0,48(s8)
  400bec:	10000004 	b	400c00 <tty_printf+0x3ec>
  400bf0:	00000000 	nop
  400bf4:	8fc20024 	lw	v0,36(s8)
  400bf8:	24420001 	addiu	v0,v0,1
  400bfc:	afc20024 	sw	v0,36(s8)
  400c00:	8fc30030 	lw	v1,48(s8)
  400c04:	8fc20024 	lw	v0,36(s8)
  400c08:	00621021 	addu	v0,v1,v0
  400c0c:	80420000 	lb	v0,0(v0)
  400c10:	1440fff8 	bnez	v0,400bf4 <tty_printf+0x3e0>
  400c14:	00000000 	nop
  400c18:	8fc2001c 	lw	v0,28(s8)
  400c1c:	afc20020 	sw	v0,32(s8)
  400c20:	00000000 	nop
  400c24:	8fc20020 	lw	v0,32(s8)
  400c28:	afa00010 	sw	zero,16(sp)
  400c2c:	00003825 	move	a3,zero
  400c30:	8fc60024 	lw	a2,36(s8)
  400c34:	00402825 	move	a1,v0
  400c38:	24040002 	li	a0,2
  400c3c:	0c10001b 	jal	40006c <sys_call>
  400c40:	00000000 	nop
  400c44:	afc2002c 	sw	v0,44(s8)
  400c48:	8fc3002c 	lw	v1,44(s8)
  400c4c:	8fc20024 	lw	v0,36(s8)
  400c50:	10620007 	beq	v1,v0,400c70 <tty_printf+0x45c>
  400c54:	00000000 	nop
  400c58:	24020001 	li	v0,1
  400c5c:	10000007 	b	400c7c <tty_printf+0x468>
  400c60:	00000000 	nop
  400c64:	00000000 	nop
  400c68:	1000ff39 	b	400950 <tty_printf+0x13c>
  400c6c:	00000000 	nop
  400c70:	00000000 	nop
  400c74:	1000ff36 	b	400950 <tty_printf+0x13c>
  400c78:	00000000 	nop
  400c7c:	03c0e825 	move	sp,s8
  400c80:	8fbf0054 	lw	ra,84(sp)
  400c84:	8fbe0050 	lw	s8,80(sp)
  400c88:	27bd0058 	addiu	sp,sp,88
  400c8c:	03e00008 	jr	ra
  400c90:	00000000 	nop

00400c94 <timer_set_mode>:
  400c94:	27bdffe0 	addiu	sp,sp,-32
  400c98:	afbf001c 	sw	ra,28(sp)
  400c9c:	afbe0018 	sw	s8,24(sp)
  400ca0:	03a0f025 	move	s8,sp
  400ca4:	afc40020 	sw	a0,32(s8)
  400ca8:	afa00010 	sw	zero,16(sp)
  400cac:	00003825 	move	a3,zero
  400cb0:	8fc60020 	lw	a2,32(s8)
  400cb4:	24050001 	li	a1,1
  400cb8:	24040004 	li	a0,4
  400cbc:	0c10001b 	jal	40006c <sys_call>
  400cc0:	00000000 	nop
  400cc4:	03c0e825 	move	sp,s8
  400cc8:	8fbf001c 	lw	ra,28(sp)
  400ccc:	8fbe0018 	lw	s8,24(sp)
  400cd0:	27bd0020 	addiu	sp,sp,32
  400cd4:	03e00008 	jr	ra
  400cd8:	00000000 	nop

00400cdc <timer_set_period>:
  400cdc:	27bdffe0 	addiu	sp,sp,-32
  400ce0:	afbf001c 	sw	ra,28(sp)
  400ce4:	afbe0018 	sw	s8,24(sp)
  400ce8:	03a0f025 	move	s8,sp
  400cec:	afc40020 	sw	a0,32(s8)
  400cf0:	afa00010 	sw	zero,16(sp)
  400cf4:	00003825 	move	a3,zero
  400cf8:	8fc60020 	lw	a2,32(s8)
  400cfc:	24050002 	li	a1,2
  400d00:	24040004 	li	a0,4
  400d04:	0c10001b 	jal	40006c <sys_call>
  400d08:	00000000 	nop
  400d0c:	03c0e825 	move	sp,s8
  400d10:	8fbf001c 	lw	ra,28(sp)
  400d14:	8fbe0018 	lw	s8,24(sp)
  400d18:	27bd0020 	addiu	sp,sp,32
  400d1c:	03e00008 	jr	ra
  400d20:	00000000 	nop

00400d24 <timer_reset_irq>:
  400d24:	27bdffe0 	addiu	sp,sp,-32
  400d28:	afbf001c 	sw	ra,28(sp)
  400d2c:	afbe0018 	sw	s8,24(sp)
  400d30:	03a0f025 	move	s8,sp
  400d34:	afa00010 	sw	zero,16(sp)
  400d38:	00003825 	move	a3,zero
  400d3c:	00003025 	move	a2,zero
  400d40:	24050003 	li	a1,3
  400d44:	24040004 	li	a0,4
  400d48:	0c10001b 	jal	40006c <sys_call>
  400d4c:	00000000 	nop
  400d50:	03c0e825 	move	sp,s8
  400d54:	8fbf001c 	lw	ra,28(sp)
  400d58:	8fbe0018 	lw	s8,24(sp)
  400d5c:	27bd0020 	addiu	sp,sp,32
  400d60:	03e00008 	jr	ra
  400d64:	00000000 	nop

00400d68 <timer_get_time>:
  400d68:	27bdffe0 	addiu	sp,sp,-32
  400d6c:	afbf001c 	sw	ra,28(sp)
  400d70:	afbe0018 	sw	s8,24(sp)
  400d74:	03a0f025 	move	s8,sp
  400d78:	afc40020 	sw	a0,32(s8)
  400d7c:	8fc20020 	lw	v0,32(s8)
  400d80:	afa00010 	sw	zero,16(sp)
  400d84:	00003825 	move	a3,zero
  400d88:	00403025 	move	a2,v0
  400d8c:	00002825 	move	a1,zero
  400d90:	24040005 	li	a0,5
  400d94:	0c10001b 	jal	40006c <sys_call>
  400d98:	00000000 	nop
  400d9c:	03c0e825 	move	sp,s8
  400da0:	8fbf001c 	lw	ra,28(sp)
  400da4:	8fbe0018 	lw	s8,24(sp)
  400da8:	27bd0020 	addiu	sp,sp,32
  400dac:	03e00008 	jr	ra
  400db0:	00000000 	nop

00400db4 <gcd_set_opa>:
  400db4:	27bdffe0 	addiu	sp,sp,-32
  400db8:	afbf001c 	sw	ra,28(sp)
  400dbc:	afbe0018 	sw	s8,24(sp)
  400dc0:	03a0f025 	move	s8,sp
  400dc4:	afc40020 	sw	a0,32(s8)
  400dc8:	afa00010 	sw	zero,16(sp)
  400dcc:	00003825 	move	a3,zero
  400dd0:	8fc60020 	lw	a2,32(s8)
  400dd4:	00002825 	move	a1,zero
  400dd8:	24040006 	li	a0,6
  400ddc:	0c10001b 	jal	40006c <sys_call>
  400de0:	00000000 	nop
  400de4:	03c0e825 	move	sp,s8
  400de8:	8fbf001c 	lw	ra,28(sp)
  400dec:	8fbe0018 	lw	s8,24(sp)
  400df0:	27bd0020 	addiu	sp,sp,32
  400df4:	03e00008 	jr	ra
  400df8:	00000000 	nop

00400dfc <gcd_set_opb>:
  400dfc:	27bdffe0 	addiu	sp,sp,-32
  400e00:	afbf001c 	sw	ra,28(sp)
  400e04:	afbe0018 	sw	s8,24(sp)
  400e08:	03a0f025 	move	s8,sp
  400e0c:	afc40020 	sw	a0,32(s8)
  400e10:	afa00010 	sw	zero,16(sp)
  400e14:	00003825 	move	a3,zero
  400e18:	8fc60020 	lw	a2,32(s8)
  400e1c:	24050001 	li	a1,1
  400e20:	24040006 	li	a0,6
  400e24:	0c10001b 	jal	40006c <sys_call>
  400e28:	00000000 	nop
  400e2c:	03c0e825 	move	sp,s8
  400e30:	8fbf001c 	lw	ra,28(sp)
  400e34:	8fbe0018 	lw	s8,24(sp)
  400e38:	27bd0020 	addiu	sp,sp,32
  400e3c:	03e00008 	jr	ra
  400e40:	00000000 	nop

00400e44 <gcd_start>:
  400e44:	27bdffe0 	addiu	sp,sp,-32
  400e48:	afbf001c 	sw	ra,28(sp)
  400e4c:	afbe0018 	sw	s8,24(sp)
  400e50:	03a0f025 	move	s8,sp
  400e54:	afa00010 	sw	zero,16(sp)
  400e58:	00003825 	move	a3,zero
  400e5c:	00003025 	move	a2,zero
  400e60:	24050002 	li	a1,2
  400e64:	24040006 	li	a0,6
  400e68:	0c10001b 	jal	40006c <sys_call>
  400e6c:	00000000 	nop
  400e70:	03c0e825 	move	sp,s8
  400e74:	8fbf001c 	lw	ra,28(sp)
  400e78:	8fbe0018 	lw	s8,24(sp)
  400e7c:	27bd0020 	addiu	sp,sp,32
  400e80:	03e00008 	jr	ra
  400e84:	00000000 	nop

00400e88 <gcd_get_status>:
  400e88:	27bdffe0 	addiu	sp,sp,-32
  400e8c:	afbf001c 	sw	ra,28(sp)
  400e90:	afbe0018 	sw	s8,24(sp)
  400e94:	03a0f025 	move	s8,sp
  400e98:	afc40020 	sw	a0,32(s8)
  400e9c:	8fc20020 	lw	v0,32(s8)
  400ea0:	afa00010 	sw	zero,16(sp)
  400ea4:	00003825 	move	a3,zero
  400ea8:	00403025 	move	a2,v0
  400eac:	24050003 	li	a1,3
  400eb0:	24040007 	li	a0,7
  400eb4:	0c10001b 	jal	40006c <sys_call>
  400eb8:	00000000 	nop
  400ebc:	03c0e825 	move	sp,s8
  400ec0:	8fbf001c 	lw	ra,28(sp)
  400ec4:	8fbe0018 	lw	s8,24(sp)
  400ec8:	27bd0020 	addiu	sp,sp,32
  400ecc:	03e00008 	jr	ra
  400ed0:	00000000 	nop

00400ed4 <gcd_get_result>:
  400ed4:	27bdffe0 	addiu	sp,sp,-32
  400ed8:	afbf001c 	sw	ra,28(sp)
  400edc:	afbe0018 	sw	s8,24(sp)
  400ee0:	03a0f025 	move	s8,sp
  400ee4:	afc40020 	sw	a0,32(s8)
  400ee8:	8fc20020 	lw	v0,32(s8)
  400eec:	afa00010 	sw	zero,16(sp)
  400ef0:	00003825 	move	a3,zero
  400ef4:	00403025 	move	a2,v0
  400ef8:	00002825 	move	a1,zero
  400efc:	24040007 	li	a0,7
  400f00:	0c10001b 	jal	40006c <sys_call>
  400f04:	00000000 	nop
  400f08:	03c0e825 	move	sp,s8
  400f0c:	8fbf001c 	lw	ra,28(sp)
  400f10:	8fbe0018 	lw	s8,24(sp)
  400f14:	27bd0020 	addiu	sp,sp,32
  400f18:	03e00008 	jr	ra
  400f1c:	00000000 	nop

00400f20 <ioc_write>:
  400f20:	27bdffe0 	addiu	sp,sp,-32
  400f24:	afbf001c 	sw	ra,28(sp)
  400f28:	afbe0018 	sw	s8,24(sp)
  400f2c:	03a0f025 	move	s8,sp
  400f30:	afc40020 	sw	a0,32(s8)
  400f34:	afc50024 	sw	a1,36(s8)
  400f38:	afc60028 	sw	a2,40(s8)
  400f3c:	8fc20024 	lw	v0,36(s8)
  400f40:	afa00010 	sw	zero,16(sp)
  400f44:	8fc70028 	lw	a3,40(s8)
  400f48:	00403025 	move	a2,v0
  400f4c:	8fc50020 	lw	a1,32(s8)
  400f50:	24040015 	li	a0,21
  400f54:	0c10001b 	jal	40006c <sys_call>
  400f58:	00000000 	nop
  400f5c:	03c0e825 	move	sp,s8
  400f60:	8fbf001c 	lw	ra,28(sp)
  400f64:	8fbe0018 	lw	s8,24(sp)
  400f68:	27bd0020 	addiu	sp,sp,32
  400f6c:	03e00008 	jr	ra
  400f70:	00000000 	nop

00400f74 <ioc_read>:
  400f74:	27bdffe0 	addiu	sp,sp,-32
  400f78:	afbf001c 	sw	ra,28(sp)
  400f7c:	afbe0018 	sw	s8,24(sp)
  400f80:	03a0f025 	move	s8,sp
  400f84:	afc40020 	sw	a0,32(s8)
  400f88:	afc50024 	sw	a1,36(s8)
  400f8c:	afc60028 	sw	a2,40(s8)
  400f90:	8fc20024 	lw	v0,36(s8)
  400f94:	afa00010 	sw	zero,16(sp)
  400f98:	8fc70028 	lw	a3,40(s8)
  400f9c:	00403025 	move	a2,v0
  400fa0:	8fc50020 	lw	a1,32(s8)
  400fa4:	24040016 	li	a0,22
  400fa8:	0c10001b 	jal	40006c <sys_call>
  400fac:	00000000 	nop
  400fb0:	03c0e825 	move	sp,s8
  400fb4:	8fbf001c 	lw	ra,28(sp)
  400fb8:	8fbe0018 	lw	s8,24(sp)
  400fbc:	27bd0020 	addiu	sp,sp,32
  400fc0:	03e00008 	jr	ra
  400fc4:	00000000 	nop

00400fc8 <ioc_completed>:
  400fc8:	27bdffe0 	addiu	sp,sp,-32
  400fcc:	afbf001c 	sw	ra,28(sp)
  400fd0:	afbe0018 	sw	s8,24(sp)
  400fd4:	03a0f025 	move	s8,sp
  400fd8:	afa00010 	sw	zero,16(sp)
  400fdc:	00003825 	move	a3,zero
  400fe0:	00003025 	move	a2,zero
  400fe4:	00002825 	move	a1,zero
  400fe8:	24040017 	li	a0,23
  400fec:	0c10001b 	jal	40006c <sys_call>
  400ff0:	00000000 	nop
  400ff4:	03c0e825 	move	sp,s8
  400ff8:	8fbf001c 	lw	ra,28(sp)
  400ffc:	8fbe0018 	lw	s8,24(sp)
  401000:	27bd0020 	addiu	sp,sp,32
  401004:	03e00008 	jr	ra
  401008:	00000000 	nop

0040100c <fb_sync_write>:
  40100c:	27bdffe0 	addiu	sp,sp,-32
  401010:	afbf001c 	sw	ra,28(sp)
  401014:	afbe0018 	sw	s8,24(sp)
  401018:	03a0f025 	move	s8,sp
  40101c:	afc40020 	sw	a0,32(s8)
  401020:	afc50024 	sw	a1,36(s8)
  401024:	afc60028 	sw	a2,40(s8)
  401028:	8fc20024 	lw	v0,36(s8)
  40102c:	afa00010 	sw	zero,16(sp)
  401030:	8fc70028 	lw	a3,40(s8)
  401034:	00403025 	move	a2,v0
  401038:	8fc50020 	lw	a1,32(s8)
  40103c:	24040010 	li	a0,16
  401040:	0c10001b 	jal	40006c <sys_call>
  401044:	00000000 	nop
  401048:	03c0e825 	move	sp,s8
  40104c:	8fbf001c 	lw	ra,28(sp)
  401050:	8fbe0018 	lw	s8,24(sp)
  401054:	27bd0020 	addiu	sp,sp,32
  401058:	03e00008 	jr	ra
  40105c:	00000000 	nop

00401060 <fb_sync_read>:
  401060:	27bdffe0 	addiu	sp,sp,-32
  401064:	afbf001c 	sw	ra,28(sp)
  401068:	afbe0018 	sw	s8,24(sp)
  40106c:	03a0f025 	move	s8,sp
  401070:	afc40020 	sw	a0,32(s8)
  401074:	afc50024 	sw	a1,36(s8)
  401078:	afc60028 	sw	a2,40(s8)
  40107c:	8fc20024 	lw	v0,36(s8)
  401080:	afa00010 	sw	zero,16(sp)
  401084:	8fc70028 	lw	a3,40(s8)
  401088:	00403025 	move	a2,v0
  40108c:	8fc50020 	lw	a1,32(s8)
  401090:	24040011 	li	a0,17
  401094:	0c10001b 	jal	40006c <sys_call>
  401098:	00000000 	nop
  40109c:	03c0e825 	move	sp,s8
  4010a0:	8fbf001c 	lw	ra,28(sp)
  4010a4:	8fbe0018 	lw	s8,24(sp)
  4010a8:	27bd0020 	addiu	sp,sp,32
  4010ac:	03e00008 	jr	ra
  4010b0:	00000000 	nop

004010b4 <fb_write>:
  4010b4:	27bdffe0 	addiu	sp,sp,-32
  4010b8:	afbf001c 	sw	ra,28(sp)
  4010bc:	afbe0018 	sw	s8,24(sp)
  4010c0:	03a0f025 	move	s8,sp
  4010c4:	afc40020 	sw	a0,32(s8)
  4010c8:	afc50024 	sw	a1,36(s8)
  4010cc:	afc60028 	sw	a2,40(s8)
  4010d0:	8fc20024 	lw	v0,36(s8)
  4010d4:	afa00010 	sw	zero,16(sp)
  4010d8:	8fc70028 	lw	a3,40(s8)
  4010dc:	00403025 	move	a2,v0
  4010e0:	8fc50020 	lw	a1,32(s8)
  4010e4:	24040012 	li	a0,18
  4010e8:	0c10001b 	jal	40006c <sys_call>
  4010ec:	00000000 	nop
  4010f0:	03c0e825 	move	sp,s8
  4010f4:	8fbf001c 	lw	ra,28(sp)
  4010f8:	8fbe0018 	lw	s8,24(sp)
  4010fc:	27bd0020 	addiu	sp,sp,32
  401100:	03e00008 	jr	ra
  401104:	00000000 	nop

00401108 <fb_read>:
  401108:	27bdffe0 	addiu	sp,sp,-32
  40110c:	afbf001c 	sw	ra,28(sp)
  401110:	afbe0018 	sw	s8,24(sp)
  401114:	03a0f025 	move	s8,sp
  401118:	afc40020 	sw	a0,32(s8)
  40111c:	afc50024 	sw	a1,36(s8)
  401120:	afc60028 	sw	a2,40(s8)
  401124:	8fc20024 	lw	v0,36(s8)
  401128:	afa00010 	sw	zero,16(sp)
  40112c:	8fc70028 	lw	a3,40(s8)
  401130:	00403025 	move	a2,v0
  401134:	8fc50020 	lw	a1,32(s8)
  401138:	24040013 	li	a0,19
  40113c:	0c10001b 	jal	40006c <sys_call>
  401140:	00000000 	nop
  401144:	03c0e825 	move	sp,s8
  401148:	8fbf001c 	lw	ra,28(sp)
  40114c:	8fbe0018 	lw	s8,24(sp)
  401150:	27bd0020 	addiu	sp,sp,32
  401154:	03e00008 	jr	ra
  401158:	00000000 	nop

0040115c <fb_completed>:
  40115c:	27bdffe0 	addiu	sp,sp,-32
  401160:	afbf001c 	sw	ra,28(sp)
  401164:	afbe0018 	sw	s8,24(sp)
  401168:	03a0f025 	move	s8,sp
  40116c:	afa00010 	sw	zero,16(sp)
  401170:	00003825 	move	a3,zero
  401174:	00003025 	move	a2,zero
  401178:	00002825 	move	a1,zero
  40117c:	24040014 	li	a0,20
  401180:	0c10001b 	jal	40006c <sys_call>
  401184:	00000000 	nop
  401188:	03c0e825 	move	sp,s8
  40118c:	8fbf001c 	lw	ra,28(sp)
  401190:	8fbe0018 	lw	s8,24(sp)
  401194:	27bd0020 	addiu	sp,sp,32
  401198:	03e00008 	jr	ra
  40119c:	00000000 	nop

004011a0 <barrier_init>:
  4011a0:	27bdffe0 	addiu	sp,sp,-32
  4011a4:	afbf001c 	sw	ra,28(sp)
  4011a8:	afbe0018 	sw	s8,24(sp)
  4011ac:	03a0f025 	move	s8,sp
  4011b0:	afc40020 	sw	a0,32(s8)
  4011b4:	afc50024 	sw	a1,36(s8)
  4011b8:	afa00010 	sw	zero,16(sp)
  4011bc:	00003825 	move	a3,zero
  4011c0:	8fc60024 	lw	a2,36(s8)
  4011c4:	8fc50020 	lw	a1,32(s8)
  4011c8:	24040018 	li	a0,24
  4011cc:	0c10001b 	jal	40006c <sys_call>
  4011d0:	00000000 	nop
  4011d4:	03c0e825 	move	sp,s8
  4011d8:	8fbf001c 	lw	ra,28(sp)
  4011dc:	8fbe0018 	lw	s8,24(sp)
  4011e0:	27bd0020 	addiu	sp,sp,32
  4011e4:	03e00008 	jr	ra
  4011e8:	00000000 	nop

004011ec <barrier_wait>:
  4011ec:	27bdffe0 	addiu	sp,sp,-32
  4011f0:	afbf001c 	sw	ra,28(sp)
  4011f4:	afbe0018 	sw	s8,24(sp)
  4011f8:	03a0f025 	move	s8,sp
  4011fc:	afc40020 	sw	a0,32(s8)
  401200:	afa00010 	sw	zero,16(sp)
  401204:	00003825 	move	a3,zero
  401208:	00003025 	move	a2,zero
  40120c:	8fc50020 	lw	a1,32(s8)
  401210:	24040019 	li	a0,25
  401214:	0c10001b 	jal	40006c <sys_call>
  401218:	00000000 	nop
  40121c:	03c0e825 	move	sp,s8
  401220:	8fbf001c 	lw	ra,28(sp)
  401224:	8fbe0018 	lw	s8,24(sp)
  401228:	27bd0020 	addiu	sp,sp,32
  40122c:	03e00008 	jr	ra
  401230:	00000000 	nop

00401234 <exit>:
  401234:	27bdffd8 	addiu	sp,sp,-40
  401238:	afbf0024 	sw	ra,36(sp)
  40123c:	afbe0020 	sw	s8,32(sp)
  401240:	03a0f025 	move	s8,sp
  401244:	0c10002f 	jal	4000bc <procid>
  401248:	00000000 	nop
  40124c:	afc20018 	sw	v0,24(s8)
  401250:	afa00010 	sw	zero,16(sp)
  401254:	00003825 	move	a3,zero
  401258:	00003025 	move	a2,zero
  40125c:	8fc50018 	lw	a1,24(s8)
  401260:	2404000e 	li	a0,14
  401264:	0c10001b 	jal	40006c <sys_call>
  401268:	00000000 	nop
  40126c:	00000000 	nop
  401270:	03c0e825 	move	sp,s8
  401274:	8fbf0024 	lw	ra,36(sp)
  401278:	8fbe0020 	lw	s8,32(sp)
  40127c:	27bd0028 	addiu	sp,sp,40
  401280:	03e00008 	jr	ra
  401284:	00000000 	nop

00401288 <rand>:
  401288:	27bdffd8 	addiu	sp,sp,-40
  40128c:	afbf0024 	sw	ra,36(sp)
  401290:	afbe0020 	sw	s8,32(sp)
  401294:	03a0f025 	move	s8,sp
  401298:	afa00010 	sw	zero,16(sp)
  40129c:	00003825 	move	a3,zero
  4012a0:	00003025 	move	a2,zero
  4012a4:	00002825 	move	a1,zero
  4012a8:	24040001 	li	a0,1
  4012ac:	0c10001b 	jal	40006c <sys_call>
  4012b0:	00000000 	nop
  4012b4:	afc20018 	sw	v0,24(s8)
  4012b8:	8fc20018 	lw	v0,24(s8)
  4012bc:	30420008 	andi	v0,v0,0x8
  4012c0:	10400007 	beqz	v0,4012e0 <rand+0x58>
  4012c4:	00000000 	nop
  4012c8:	8fc30018 	lw	v1,24(s8)
  4012cc:	8fc20018 	lw	v0,24(s8)
  4012d0:	70621002 	mul	v0,v1,v0
  4012d4:	3042ffff 	andi	v0,v0,0xffff
  4012d8:	10000007 	b	4012f8 <rand+0x70>
  4012dc:	00000000 	nop
  4012e0:	8fc30018 	lw	v1,24(s8)
  4012e4:	8fc20018 	lw	v0,24(s8)
  4012e8:	70621802 	mul	v1,v1,v0
  4012ec:	8fc20018 	lw	v0,24(s8)
  4012f0:	70621002 	mul	v0,v1,v0
  4012f4:	3042ffff 	andi	v0,v0,0xffff
  4012f8:	03c0e825 	move	sp,s8
  4012fc:	8fbf0024 	lw	ra,36(sp)
  401300:	8fbe0020 	lw	s8,32(sp)
  401304:	27bd0028 	addiu	sp,sp,40
  401308:	03e00008 	jr	ra
  40130c:	00000000 	nop

00401310 <ctx_switch>:
  401310:	27bdffe0 	addiu	sp,sp,-32
  401314:	afbf001c 	sw	ra,28(sp)
  401318:	afbe0018 	sw	s8,24(sp)
  40131c:	03a0f025 	move	s8,sp
  401320:	afa00010 	sw	zero,16(sp)
  401324:	00003825 	move	a3,zero
  401328:	00003025 	move	a2,zero
  40132c:	00002825 	move	a1,zero
  401330:	2404000d 	li	a0,13
  401334:	0c10001b 	jal	40006c <sys_call>
  401338:	00000000 	nop
  40133c:	03c0e825 	move	sp,s8
  401340:	8fbf001c 	lw	ra,28(sp)
  401344:	8fbe0018 	lw	s8,24(sp)
  401348:	27bd0020 	addiu	sp,sp,32
  40134c:	03e00008 	jr	ra
  401350:	00000000 	nop

Disassembly of section .MIPS.abiflags:

00401358 <.MIPS.abiflags>:
  401358:	01200000 	0x1200000
  40135c:	01000101 	0x1000101
	...
  401368:	00000001 	movf	zero,zero,$fcc0
  40136c:	00000000 	nop

Disassembly of section seg_data:

01000000 <A-0x7c>:
 1000000:	00400000 	0x400000
	...

0100007c <A>:
 100007c:	00000001 	movf	zero,zero,$fcc0
 1000080:	00000002 	srl	zero,zero,0x0
 1000084:	00000003 	sra	zero,zero,0x0
 1000088:	00000004 	sllv	zero,zero,zero
 100008c:	00000005 	0x5
 1000090:	00000006 	srlv	zero,zero,zero
 1000094:	00000007 	srav	zero,zero,zero
 1000098:	00000008 	jr	zero
 100009c:	00000009 	jalr	zero,zero
 10000a0:	0000000a 	movz	zero,zero,zero
 10000a4:	0000000b 	movn	zero,zero,zero
 10000a8:	0000000c 	syscall
 10000ac:	0000000d 	break
 10000b0:	0000000e 	0xe
 10000b4:	0000000f 	sync
 10000b8:	00000010 	mfhi	zero
 10000bc:	00000011 	mthi	zero
 10000c0:	00000012 	mflo	zero
 10000c4:	00000013 	mtlo	zero
 10000c8:	00000014 	0x14
	...

010000f4 <B>:
 10000f4:	00000065 	0x65
 10000f8:	00000066 	0x66
 10000fc:	00000067 	0x67
 1000100:	00000068 	0x68
 1000104:	00000069 	0x69
 1000108:	0000006a 	0x6a
 100010c:	0000006b 	0x6b
 1000110:	0000006c 	0x6c
 1000114:	0000006d 	0x6d
 1000118:	0000006e 	0x6e
 100011c:	0000006f 	0x6f
 1000120:	00000070 	tge	zero,zero,0x1
 1000124:	00000071 	tgeu	zero,zero,0x1
 1000128:	00000072 	tlt	zero,zero,0x1
 100012c:	00000073 	tltu	zero,zero,0x1
 1000130:	00000074 	teq	zero,zero,0x1
 1000134:	00000075 	0x75
 1000138:	00000076 	tne	zero,zero,0x1
 100013c:	00000077 	0x77
 1000140:	00000078 	0x78
	...

0100016c <C>:
	...
 10001bc:	0000002d 	0x2d
 10001c0:	00007830 	tge	zero,zero,0x1e0
 10001c4:	00400988 	0x400988
 10001c8:	004009b0 	tge	v0,zero,0x26
 10001cc:	00400c64 	0x400c64
 10001d0:	00400c64 	0x400c64
 10001d4:	00400c64 	0x400c64
 10001d8:	00400c64 	0x400c64
 10001dc:	00400c64 	0x400c64
 10001e0:	00400c64 	0x400c64
 10001e4:	00400c64 	0x400c64
 10001e8:	00400c64 	0x400c64
 10001ec:	00400c64 	0x400c64
 10001f0:	00400c64 	0x400c64
 10001f4:	00400c64 	0x400c64
 10001f8:	00400c64 	0x400c64
 10001fc:	00400c64 	0x400c64
 1000200:	00400c64 	0x400c64
 1000204:	00400be4 	0x400be4
 1000208:	00400c64 	0x400c64
 100020c:	00400a0c 	syscall	0x10028
 1000210:	00400c64 	0x400c64
 1000214:	00400c64 	0x400c64
 1000218:	00400af8 	0x400af8

0100021c <HexaTab.1148>:
 100021c:	33323130 	andi	s2,t9,0x3130
 1000220:	37363534 	ori	s6,t9,0x3534
 1000224:	42413938 	c0	0x413938
 1000228:	46454443 	c1	0x454443
	...

Disassembly of section .reginfo:

00000000 <.reginfo>:
   0:	e00000fc 	sc	zero,252(zero)
	...

Disassembly of section .pdr:

00000000 <.pdr>:
   0:	0040006c 	0x40006c
   4:	c0000000 	ll	zero,0(zero)
   8:	fffffffc 	sdc3	$31,-4(ra)
	...
  14:	00000008 	jr	zero
  18:	0000001e 	0x1e
  1c:	0000001f 	0x1f
  20:	004000bc 	0x4000bc
  24:	c0000000 	ll	zero,0(zero)
  28:	fffffffc 	sdc3	$31,-4(ra)
	...
  34:	00000020 	add	zero,zero,zero
  38:	0000001e 	0x1e
  3c:	0000001f 	0x1f
  40:	00400100 	0x400100
  44:	c0000000 	ll	zero,0(zero)
  48:	fffffffc 	sdc3	$31,-4(ra)
	...
  54:	00000020 	add	zero,zero,zero
  58:	0000001e 	0x1e
  5c:	0000001f 	0x1f
  60:	00400144 	0x400144
  64:	c0000000 	ll	zero,0(zero)
  68:	fffffffc 	sdc3	$31,-4(ra)
	...
  74:	00000020 	add	zero,zero,zero
  78:	0000001e 	0x1e
  7c:	0000001f 	0x1f
  80:	00400188 	0x400188
  84:	c0000000 	ll	zero,0(zero)
  88:	fffffffc 	sdc3	$31,-4(ra)
	...
  94:	00000020 	add	zero,zero,zero
  98:	0000001e 	0x1e
  9c:	0000001f 	0x1f
  a0:	004001d8 	0x4001d8
  a4:	c0000000 	ll	zero,0(zero)
  a8:	fffffffc 	sdc3	$31,-4(ra)
	...
  b4:	00000028 	0x28
  b8:	0000001e 	0x1e
  bc:	0000001f 	0x1f
  c0:	00400254 	0x400254
  c4:	c0000000 	ll	zero,0(zero)
  c8:	fffffffc 	sdc3	$31,-4(ra)
	...
  d4:	00000030 	tge	zero,zero
  d8:	0000001e 	0x1e
  dc:	0000001f 	0x1f
  e0:	0040033c 	0x40033c
  e4:	c0000000 	ll	zero,0(zero)
  e8:	fffffffc 	sdc3	$31,-4(ra)
	...
  f4:	00000028 	0x28
  f8:	0000001e 	0x1e
  fc:	0000001f 	0x1f
 100:	004003a8 	0x4003a8
 104:	c0000000 	ll	zero,0(zero)
 108:	fffffffc 	sdc3	$31,-4(ra)
	...
 114:	00000028 	0x28
 118:	0000001e 	0x1e
 11c:	0000001f 	0x1f
 120:	00400414 	0x400414
 124:	c0000000 	ll	zero,0(zero)
 128:	fffffffc 	sdc3	$31,-4(ra)
	...
 134:	00000030 	tge	zero,zero
 138:	0000001e 	0x1e
 13c:	0000001f 	0x1f
 140:	00400524 	0x400524
 144:	c0000000 	ll	zero,0(zero)
 148:	fffffffc 	sdc3	$31,-4(ra)
	...
 154:	00000060 	0x60
 158:	0000001e 	0x1e
 15c:	0000001f 	0x1f
 160:	00400814 	0x400814
 164:	c0000000 	ll	zero,0(zero)
 168:	fffffffc 	sdc3	$31,-4(ra)
	...
 174:	00000058 	0x58
 178:	0000001e 	0x1e
 17c:	0000001f 	0x1f
 180:	00400c94 	0x400c94
 184:	c0000000 	ll	zero,0(zero)
 188:	fffffffc 	sdc3	$31,-4(ra)
	...
 194:	00000020 	add	zero,zero,zero
 198:	0000001e 	0x1e
 19c:	0000001f 	0x1f
 1a0:	00400cdc 	0x400cdc
 1a4:	c0000000 	ll	zero,0(zero)
 1a8:	fffffffc 	sdc3	$31,-4(ra)
	...
 1b4:	00000020 	add	zero,zero,zero
 1b8:	0000001e 	0x1e
 1bc:	0000001f 	0x1f
 1c0:	00400d24 	0x400d24
 1c4:	c0000000 	ll	zero,0(zero)
 1c8:	fffffffc 	sdc3	$31,-4(ra)
	...
 1d4:	00000020 	add	zero,zero,zero
 1d8:	0000001e 	0x1e
 1dc:	0000001f 	0x1f
 1e0:	00400d68 	0x400d68
 1e4:	c0000000 	ll	zero,0(zero)
 1e8:	fffffffc 	sdc3	$31,-4(ra)
	...
 1f4:	00000020 	add	zero,zero,zero
 1f8:	0000001e 	0x1e
 1fc:	0000001f 	0x1f
 200:	00400db4 	teq	v0,zero,0x36
 204:	c0000000 	ll	zero,0(zero)
 208:	fffffffc 	sdc3	$31,-4(ra)
	...
 214:	00000020 	add	zero,zero,zero
 218:	0000001e 	0x1e
 21c:	0000001f 	0x1f
 220:	00400dfc 	0x400dfc
 224:	c0000000 	ll	zero,0(zero)
 228:	fffffffc 	sdc3	$31,-4(ra)
	...
 234:	00000020 	add	zero,zero,zero
 238:	0000001e 	0x1e
 23c:	0000001f 	0x1f
 240:	00400e44 	0x400e44
 244:	c0000000 	ll	zero,0(zero)
 248:	fffffffc 	sdc3	$31,-4(ra)
	...
 254:	00000020 	add	zero,zero,zero
 258:	0000001e 	0x1e
 25c:	0000001f 	0x1f
 260:	00400e88 	0x400e88
 264:	c0000000 	ll	zero,0(zero)
 268:	fffffffc 	sdc3	$31,-4(ra)
	...
 274:	00000020 	add	zero,zero,zero
 278:	0000001e 	0x1e
 27c:	0000001f 	0x1f
 280:	00400ed4 	0x400ed4
 284:	c0000000 	ll	zero,0(zero)
 288:	fffffffc 	sdc3	$31,-4(ra)
	...
 294:	00000020 	add	zero,zero,zero
 298:	0000001e 	0x1e
 29c:	0000001f 	0x1f
 2a0:	00400f20 	0x400f20
 2a4:	c0000000 	ll	zero,0(zero)
 2a8:	fffffffc 	sdc3	$31,-4(ra)
	...
 2b4:	00000020 	add	zero,zero,zero
 2b8:	0000001e 	0x1e
 2bc:	0000001f 	0x1f
 2c0:	00400f74 	teq	v0,zero,0x3d
 2c4:	c0000000 	ll	zero,0(zero)
 2c8:	fffffffc 	sdc3	$31,-4(ra)
	...
 2d4:	00000020 	add	zero,zero,zero
 2d8:	0000001e 	0x1e
 2dc:	0000001f 	0x1f
 2e0:	00400fc8 	0x400fc8
 2e4:	c0000000 	ll	zero,0(zero)
 2e8:	fffffffc 	sdc3	$31,-4(ra)
	...
 2f4:	00000020 	add	zero,zero,zero
 2f8:	0000001e 	0x1e
 2fc:	0000001f 	0x1f
 300:	0040100c 	syscall	0x10040
 304:	c0000000 	ll	zero,0(zero)
 308:	fffffffc 	sdc3	$31,-4(ra)
	...
 314:	00000020 	add	zero,zero,zero
 318:	0000001e 	0x1e
 31c:	0000001f 	0x1f
 320:	00401060 	0x401060
 324:	c0000000 	ll	zero,0(zero)
 328:	fffffffc 	sdc3	$31,-4(ra)
	...
 334:	00000020 	add	zero,zero,zero
 338:	0000001e 	0x1e
 33c:	0000001f 	0x1f
 340:	004010b4 	teq	v0,zero,0x42
 344:	c0000000 	ll	zero,0(zero)
 348:	fffffffc 	sdc3	$31,-4(ra)
	...
 354:	00000020 	add	zero,zero,zero
 358:	0000001e 	0x1e
 35c:	0000001f 	0x1f
 360:	00401108 	0x401108
 364:	c0000000 	ll	zero,0(zero)
 368:	fffffffc 	sdc3	$31,-4(ra)
	...
 374:	00000020 	add	zero,zero,zero
 378:	0000001e 	0x1e
 37c:	0000001f 	0x1f
 380:	0040115c 	0x40115c
 384:	c0000000 	ll	zero,0(zero)
 388:	fffffffc 	sdc3	$31,-4(ra)
	...
 394:	00000020 	add	zero,zero,zero
 398:	0000001e 	0x1e
 39c:	0000001f 	0x1f
 3a0:	004011a0 	0x4011a0
 3a4:	c0000000 	ll	zero,0(zero)
 3a8:	fffffffc 	sdc3	$31,-4(ra)
	...
 3b4:	00000020 	add	zero,zero,zero
 3b8:	0000001e 	0x1e
 3bc:	0000001f 	0x1f
 3c0:	004011ec 	0x4011ec
 3c4:	c0000000 	ll	zero,0(zero)
 3c8:	fffffffc 	sdc3	$31,-4(ra)
	...
 3d4:	00000020 	add	zero,zero,zero
 3d8:	0000001e 	0x1e
 3dc:	0000001f 	0x1f
 3e0:	00401234 	teq	v0,zero,0x48
 3e4:	c0000000 	ll	zero,0(zero)
 3e8:	fffffffc 	sdc3	$31,-4(ra)
	...
 3f4:	00000028 	0x28
 3f8:	0000001e 	0x1e
 3fc:	0000001f 	0x1f
 400:	00401288 	0x401288
 404:	c0000000 	ll	zero,0(zero)
 408:	fffffffc 	sdc3	$31,-4(ra)
	...
 414:	00000028 	0x28
 418:	0000001e 	0x1e
 41c:	0000001f 	0x1f
 420:	00401310 	0x401310
 424:	c0000000 	ll	zero,0(zero)
 428:	fffffffc 	sdc3	$31,-4(ra)
	...
 434:	00000020 	add	zero,zero,zero
 438:	0000001e 	0x1e
 43c:	0000001f 	0x1f

Disassembly of section .comment:

00000000 <.comment>:
   0:	3a434347 	xori	v1,s2,0x4347
   4:	4e472820 	c3	0x472820
   8:	38202955 	xori	zero,at,0x2955
   c:	302e322e 	andi	t6,at,0x322e
	...

Disassembly of section .gnu.attributes:

00000000 <.gnu.attributes>:
   0:	00000f41 	0xf41
   4:	756e6700 	jalx	5b99c00 <seg_stack_base+0x3b99c00>
   8:	00070100 	sll	zero,a3,0x4
   c:	01040000 	0x1040000
