
sys.bin:     file format elf32-littlemips


Disassembly of section seg_reset:

bfc00000 <reset>:
bfc00000:	401b7801 	mfc0	k1,$15,1
bfc00004:	337b0003 	andi	k1,k1,0x3
bfc00008:	241a0000 	li	k0,0
bfc0000c:	137a0007 	beq	k1,k0,bfc0002c <proc0>
bfc00010:	241a0001 	li	k0,1
bfc00014:	137a0023 	beq	k1,k0,bfc000a4 <proc1>
bfc00018:	241a0002 	li	k0,2
bfc0001c:	137a0039 	beq	k1,k0,bfc00104 <proc2>
bfc00020:	241a0003 	li	k0,3
bfc00024:	137a004f 	beq	k1,k0,bfc00164 <proc3>
bfc00028:	00000000 	nop

bfc0002c <proc0>:
bfc0002c:	3c1a8200 	lui	k0,0x8200
bfc00030:	275a031c 	addiu	k0,k0,796
bfc00034:	3c1b8000 	lui	k1,0x8000
bfc00038:	277b1b1c 	addiu	k1,k1,6940
bfc0003c:	af5b0000 	sw	k1,0(k0)
bfc00040:	3c1b8000 	lui	k1,0x8000
bfc00044:	277b1bac 	addiu	k1,k1,7084
bfc00048:	af5b0004 	sw	k1,4(k0)
bfc0004c:	3c1b8000 	lui	k1,0x8000
bfc00050:	277b1c00 	addiu	k1,k1,7168
bfc00054:	af5b0008 	sw	k1,8(k0)
bfc00058:	3c1b8000 	lui	k1,0x8000
bfc0005c:	277b1d64 	addiu	k1,k1,7524
bfc00060:	af5b000c 	sw	k1,12(k0)
bfc00064:	3c1a9f00 	lui	k0,0x9f00
bfc00068:	275a0000 	addiu	k0,k0,0
bfc0006c:	275a0000 	addiu	k0,k0,0
bfc00070:	241b000f 	li	k1,15
bfc00074:	af5b0008 	sw	k1,8(k0)
bfc00078:	3c1d0200 	lui	sp,0x200
bfc0007c:	27bd0000 	addiu	sp,sp,0
bfc00080:	3c1b0001 	lui	k1,0x1
bfc00084:	03bbe821 	addu	sp,sp,k1
bfc00088:	341aff13 	li	k0,0xff13
bfc0008c:	409a6000 	mtc0	k0,c0_status
bfc00090:	3c1a0100 	lui	k0,0x100
bfc00094:	275a0000 	addiu	k0,k0,0
bfc00098:	8f5a0000 	lw	k0,0(k0)
bfc0009c:	409a7000 	mtc0	k0,c0_epc
bfc000a0:	42000018 	eret

bfc000a4 <proc1>:
bfc000a4:	3c1a8200 	lui	k0,0x8200
bfc000a8:	275a031c 	addiu	k0,k0,796
bfc000ac:	3c1b8000 	lui	k1,0x8000
bfc000b0:	277b1c00 	addiu	k1,k1,7168
bfc000b4:	af5b0010 	sw	k1,16(k0)
bfc000b8:	3c1b8000 	lui	k1,0x8000
bfc000bc:	277b1d64 	addiu	k1,k1,7524
bfc000c0:	af5b0014 	sw	k1,20(k0)
bfc000c4:	3c1a9f00 	lui	k0,0x9f00
bfc000c8:	275a0000 	addiu	k0,k0,0
bfc000cc:	275a0020 	addiu	k0,k0,32
bfc000d0:	241b0030 	li	k1,48
bfc000d4:	af5b0008 	sw	k1,8(k0)
bfc000d8:	3c1d0200 	lui	sp,0x200
bfc000dc:	27bd0000 	addiu	sp,sp,0
bfc000e0:	3c1b0002 	lui	k1,0x2
bfc000e4:	03bbe821 	addu	sp,sp,k1
bfc000e8:	341aff13 	li	k0,0xff13
bfc000ec:	409a6000 	mtc0	k0,c0_status
bfc000f0:	3c1a0100 	lui	k0,0x100
bfc000f4:	275a0000 	addiu	k0,k0,0
bfc000f8:	8f5a0000 	lw	k0,0(k0)
bfc000fc:	409a7000 	mtc0	k0,c0_epc
bfc00100:	42000018 	eret

bfc00104 <proc2>:
bfc00104:	3c1a8200 	lui	k0,0x8200
bfc00108:	275a031c 	addiu	k0,k0,796
bfc0010c:	3c1b8000 	lui	k1,0x8000
bfc00110:	277b1c00 	addiu	k1,k1,7168
bfc00114:	af5b0018 	sw	k1,24(k0)
bfc00118:	3c1b8000 	lui	k1,0x8000
bfc0011c:	277b1d64 	addiu	k1,k1,7524
bfc00120:	af5b001c 	sw	k1,28(k0)
bfc00124:	3c1a9f00 	lui	k0,0x9f00
bfc00128:	275a0000 	addiu	k0,k0,0
bfc0012c:	275a0040 	addiu	k0,k0,64
bfc00130:	241b00c0 	li	k1,192
bfc00134:	af5b0008 	sw	k1,8(k0)
bfc00138:	3c1d0200 	lui	sp,0x200
bfc0013c:	27bd0000 	addiu	sp,sp,0
bfc00140:	3c1b0003 	lui	k1,0x3
bfc00144:	03bbe821 	addu	sp,sp,k1
bfc00148:	341aff13 	li	k0,0xff13
bfc0014c:	409a6000 	mtc0	k0,c0_status
bfc00150:	3c1a0100 	lui	k0,0x100
bfc00154:	275a0000 	addiu	k0,k0,0
bfc00158:	8f5a0000 	lw	k0,0(k0)
bfc0015c:	409a7000 	mtc0	k0,c0_epc
bfc00160:	42000018 	eret

bfc00164 <proc3>:
bfc00164:	3c1a8200 	lui	k0,0x8200
bfc00168:	275a031c 	addiu	k0,k0,796
bfc0016c:	3c1b8000 	lui	k1,0x8000
bfc00170:	277b1c00 	addiu	k1,k1,7168
bfc00174:	af5b0020 	sw	k1,32(k0)
bfc00178:	3c1b8000 	lui	k1,0x8000
bfc0017c:	277b1d64 	addiu	k1,k1,7524
bfc00180:	af5b0024 	sw	k1,36(k0)
bfc00184:	3c1a9f00 	lui	k0,0x9f00
bfc00188:	275a0000 	addiu	k0,k0,0
bfc0018c:	275a0060 	addiu	k0,k0,96
bfc00190:	241b0300 	li	k1,768
bfc00194:	af5b0008 	sw	k1,8(k0)
bfc00198:	3c1d0200 	lui	sp,0x200
bfc0019c:	27bd0000 	addiu	sp,sp,0
bfc001a0:	3c1b0004 	lui	k1,0x4
bfc001a4:	03bbe821 	addu	sp,sp,k1
bfc001a8:	341aff13 	li	k0,0xff13
bfc001ac:	409a6000 	mtc0	k0,c0_status
bfc001b0:	3c1a0100 	lui	k0,0x100
bfc001b4:	275a0000 	addiu	k0,k0,0
bfc001b8:	8f5a0000 	lw	k0,0(k0)
bfc001bc:	409a7000 	mtc0	k0,c0_epc
bfc001c0:	42000018 	eret

Disassembly of section seg_kcode:

80000000 <_giet-0x180>:
	...

80000180 <_giet>:
80000180:	401b6800 	mfc0	k1,c0_cause
80000184:	3c1a8200 	lui	k0,0x8200
80000188:	275a00d0 	addiu	k0,k0,208
8000018c:	337b003c 	andi	k1,k1,0x3c
80000190:	035bd021 	addu	k0,k0,k1
80000194:	8f5a0000 	lw	k0,0(k0)
80000198:	03400008 	jr	k0
8000019c:	00000000 	nop

800001a0 <_sys_handler>:
800001a0:	27bdffe8 	addiu	sp,sp,-24
800001a4:	401a6000 	mfc0	k0,c0_status
800001a8:	afba0010 	sw	k0,16(sp)
800001ac:	401b7000 	mfc0	k1,c0_epc
800001b0:	277b0004 	addiu	k1,k1,4
800001b4:	afbb0014 	sw	k1,20(sp)
800001b8:	305a001f 	andi	k0,v0,0x1f
800001bc:	001ad080 	sll	k0,k0,0x2
800001c0:	3c1b8200 	lui	k1,0x8200
800001c4:	277b029c 	addiu	k1,k1,668
800001c8:	037ad821 	addu	k1,k1,k0
800001cc:	8f630000 	lw	v1,0(k1)
800001d0:	241bffed 	li	k1,-19
800001d4:	401a6000 	mfc0	k0,c0_status
800001d8:	035bd024 	and	k0,k0,k1
800001dc:	0060f809 	jalr	v1
800001e0:	409a6000 	mtc0	k0,c0_status
800001e4:	40806000 	mtc0	zero,c0_status
800001e8:	8fba0010 	lw	k0,16(sp)
800001ec:	409a6000 	mtc0	k0,c0_status
800001f0:	8fba0014 	lw	k0,20(sp)
800001f4:	409a7000 	mtc0	k0,c0_epc
800001f8:	27bd0018 	addiu	sp,sp,24
800001fc:	42000018 	eret

80000200 <_int_handler>:
80000200:	27bdff9c 	addiu	sp,sp,-100
80000204:	afa10010 	sw	at,16(sp)
80000208:	afa20014 	sw	v0,20(sp)
8000020c:	afa30018 	sw	v1,24(sp)
80000210:	afa4001c 	sw	a0,28(sp)
80000214:	afa50020 	sw	a1,32(sp)
80000218:	afa60024 	sw	a2,36(sp)
8000021c:	afa70028 	sw	a3,40(sp)
80000220:	afa8002c 	sw	t0,44(sp)
80000224:	afa90030 	sw	t1,48(sp)
80000228:	afaa0034 	sw	t2,52(sp)
8000022c:	afab0038 	sw	t3,56(sp)
80000230:	afac003c 	sw	t4,60(sp)
80000234:	afad0040 	sw	t5,64(sp)
80000238:	afae0044 	sw	t6,68(sp)
8000023c:	afaf0048 	sw	t7,72(sp)
80000240:	afb8004c 	sw	t8,76(sp)
80000244:	afb90050 	sw	t9,80(sp)
80000248:	afbf0054 	sw	ra,84(sp)
8000024c:	0000d012 	mflo	k0
80000250:	afba0058 	sw	k0,88(sp)
80000254:	0000d010 	mfhi	k0
80000258:	afba005c 	sw	k0,92(sp)
8000025c:	401b7000 	mfc0	k1,c0_epc
80000260:	afbb0060 	sw	k1,96(sp)
80000264:	3c1a8000 	lui	k0,0x8000
80000268:	275a1a58 	addiu	k0,k0,6744
8000026c:	0340f809 	jalr	k0
80000270:	00000000 	nop

80000274 <restore>:
80000274:	8fa10010 	lw	at,16(sp)
80000278:	8fa20014 	lw	v0,20(sp)
8000027c:	8fa30018 	lw	v1,24(sp)
80000280:	8fa4001c 	lw	a0,28(sp)
80000284:	8fa50020 	lw	a1,32(sp)
80000288:	8fa60024 	lw	a2,36(sp)
8000028c:	8fa70028 	lw	a3,40(sp)
80000290:	8fa8002c 	lw	t0,44(sp)
80000294:	8fa90030 	lw	t1,48(sp)
80000298:	8faa0034 	lw	t2,52(sp)
8000029c:	8fab0038 	lw	t3,56(sp)
800002a0:	8fac003c 	lw	t4,60(sp)
800002a4:	8fad0040 	lw	t5,64(sp)
800002a8:	8fae0044 	lw	t6,68(sp)
800002ac:	8faf0048 	lw	t7,72(sp)
800002b0:	8fb8004c 	lw	t8,76(sp)
800002b4:	8fb90050 	lw	t9,80(sp)
800002b8:	8fbf0054 	lw	ra,84(sp)
800002bc:	8fba0058 	lw	k0,88(sp)
800002c0:	03400013 	mtlo	k0
800002c4:	8fba005c 	lw	k0,92(sp)
800002c8:	03400011 	mthi	k0
800002cc:	8fbb0060 	lw	k1,96(sp)
800002d0:	27bd0064 	addiu	sp,sp,100
800002d4:	409b7000 	mtc0	k1,c0_epc
800002d8:	42000018 	eret

800002dc <_task_switch>:
800002dc:	0080d820 	add	k1,a0,zero
800002e0:	401a6000 	mfc0	k0,c0_status
800002e4:	af7a0000 	sw	k0,0(k1)
800002e8:	af610004 	sw	at,4(k1)
800002ec:	af620008 	sw	v0,8(k1)
800002f0:	af63000c 	sw	v1,12(k1)
800002f4:	af640010 	sw	a0,16(k1)
800002f8:	af650014 	sw	a1,20(k1)
800002fc:	af660018 	sw	a2,24(k1)
80000300:	af67001c 	sw	a3,28(k1)
80000304:	af680020 	sw	t0,32(k1)
80000308:	af690024 	sw	t1,36(k1)
8000030c:	af6a0028 	sw	t2,40(k1)
80000310:	af6b002c 	sw	t3,44(k1)
80000314:	af6c0030 	sw	t4,48(k1)
80000318:	af6d0034 	sw	t5,52(k1)
8000031c:	af6e0038 	sw	t6,56(k1)
80000320:	af6f003c 	sw	t7,60(k1)
80000324:	af700040 	sw	s0,64(k1)
80000328:	af710044 	sw	s1,68(k1)
8000032c:	af720048 	sw	s2,72(k1)
80000330:	af73004c 	sw	s3,76(k1)
80000334:	af740050 	sw	s4,80(k1)
80000338:	af750054 	sw	s5,84(k1)
8000033c:	af760058 	sw	s6,88(k1)
80000340:	af77005c 	sw	s7,92(k1)
80000344:	af780060 	sw	t8,96(k1)
80000348:	af790064 	sw	t9,100(k1)
8000034c:	af7c0070 	sw	gp,112(k1)
80000350:	af7d0074 	sw	sp,116(k1)
80000354:	af7e0078 	sw	s8,120(k1)
80000358:	af7f007c 	sw	ra,124(k1)
8000035c:	401a7000 	mfc0	k0,c0_epc
80000360:	af7a0080 	sw	k0,128(k1)
80000364:	401a6800 	mfc0	k0,c0_cause
80000368:	af7a0084 	sw	k0,132(k1)
8000036c:	00a0d820 	add	k1,a1,zero
80000370:	8f7a0000 	lw	k0,0(k1)
80000374:	409a6000 	mtc0	k0,c0_status
80000378:	8f610004 	lw	at,4(k1)
8000037c:	8f620008 	lw	v0,8(k1)
80000380:	8f63000c 	lw	v1,12(k1)
80000384:	8f640010 	lw	a0,16(k1)
80000388:	8f650014 	lw	a1,20(k1)
8000038c:	8f660018 	lw	a2,24(k1)
80000390:	8f67001c 	lw	a3,28(k1)
80000394:	8f680020 	lw	t0,32(k1)
80000398:	8f690024 	lw	t1,36(k1)
8000039c:	8f6a0028 	lw	t2,40(k1)
800003a0:	8f6b002c 	lw	t3,44(k1)
800003a4:	8f6c0030 	lw	t4,48(k1)
800003a8:	8f6d0034 	lw	t5,52(k1)
800003ac:	8f6e0038 	lw	t6,56(k1)
800003b0:	8f6f003c 	lw	t7,60(k1)
800003b4:	8f700040 	lw	s0,64(k1)
800003b8:	8f710044 	lw	s1,68(k1)
800003bc:	8f720048 	lw	s2,72(k1)
800003c0:	8f73004c 	lw	s3,76(k1)
800003c4:	8f740050 	lw	s4,80(k1)
800003c8:	8f750054 	lw	s5,84(k1)
800003cc:	8f760058 	lw	s6,88(k1)
800003d0:	8f77005c 	lw	s7,92(k1)
800003d4:	8f780060 	lw	t8,96(k1)
800003d8:	8f790064 	lw	t9,100(k1)
800003dc:	8f7c0070 	lw	gp,112(k1)
800003e0:	8f7d0074 	lw	sp,116(k1)
800003e4:	8f7e0078 	lw	s8,120(k1)
800003e8:	8f7f007c 	lw	ra,124(k1)
800003ec:	8f7a0080 	lw	k0,128(k1)
800003f0:	409a7000 	mtc0	k0,c0_epc
800003f4:	8f7a0084 	lw	k0,132(k1)
800003f8:	03e00008 	jr	ra
800003fc:	409a6800 	mtc0	k0,c0_cause

80000400 <memcpy>:
80000400:	27bdffe8 	addiu	sp,sp,-24
80000404:	afbe0014 	sw	s8,20(sp)
80000408:	03a0f025 	move	s8,sp
8000040c:	afc40018 	sw	a0,24(s8)
80000410:	afc5001c 	sw	a1,28(s8)
80000414:	afc60020 	sw	a2,32(s8)
80000418:	8fc20018 	lw	v0,24(s8)
8000041c:	afc20000 	sw	v0,0(s8)
80000420:	8fc2001c 	lw	v0,28(s8)
80000424:	afc20004 	sw	v0,4(s8)
80000428:	8fc20000 	lw	v0,0(s8)
8000042c:	30420003 	andi	v0,v0,0x3
80000430:	14400016 	bnez	v0,8000048c <memcpy+0x8c>
80000434:	00000000 	nop
80000438:	8fc20004 	lw	v0,4(s8)
8000043c:	30420003 	andi	v0,v0,0x3
80000440:	14400012 	bnez	v0,8000048c <memcpy+0x8c>
80000444:	00000000 	nop
80000448:	1000000c 	b	8000047c <memcpy+0x7c>
8000044c:	00000000 	nop
80000450:	8fc30004 	lw	v1,4(s8)
80000454:	24620004 	addiu	v0,v1,4
80000458:	afc20004 	sw	v0,4(s8)
8000045c:	8fc20000 	lw	v0,0(s8)
80000460:	24440004 	addiu	a0,v0,4
80000464:	afc40000 	sw	a0,0(s8)
80000468:	8c630000 	lw	v1,0(v1)
8000046c:	ac430000 	sw	v1,0(v0)
80000470:	8fc20020 	lw	v0,32(s8)
80000474:	2442fffc 	addiu	v0,v0,-4
80000478:	afc20020 	sw	v0,32(s8)
8000047c:	8fc20020 	lw	v0,32(s8)
80000480:	2c420004 	sltiu	v0,v0,4
80000484:	1040fff2 	beqz	v0,80000450 <memcpy+0x50>
80000488:	00000000 	nop
8000048c:	8fc20000 	lw	v0,0(s8)
80000490:	afc20008 	sw	v0,8(s8)
80000494:	8fc20004 	lw	v0,4(s8)
80000498:	afc2000c 	sw	v0,12(s8)
8000049c:	10000009 	b	800004c4 <memcpy+0xc4>
800004a0:	00000000 	nop
800004a4:	8fc3000c 	lw	v1,12(s8)
800004a8:	24620001 	addiu	v0,v1,1
800004ac:	afc2000c 	sw	v0,12(s8)
800004b0:	8fc20008 	lw	v0,8(s8)
800004b4:	24440001 	addiu	a0,v0,1
800004b8:	afc40008 	sw	a0,8(s8)
800004bc:	90630000 	lbu	v1,0(v1)
800004c0:	a0430000 	sb	v1,0(v0)
800004c4:	8fc20020 	lw	v0,32(s8)
800004c8:	2443ffff 	addiu	v1,v0,-1
800004cc:	afc30020 	sw	v1,32(s8)
800004d0:	1440fff4 	bnez	v0,800004a4 <memcpy+0xa4>
800004d4:	00000000 	nop
800004d8:	8fc20018 	lw	v0,24(s8)
800004dc:	03c0e825 	move	sp,s8
800004e0:	8fbe0014 	lw	s8,20(sp)
800004e4:	27bd0018 	addiu	sp,sp,24
800004e8:	03e00008 	jr	ra
800004ec:	00000000 	nop

800004f0 <_procid>:
800004f0:	27bdfff0 	addiu	sp,sp,-16
800004f4:	afbe000c 	sw	s8,12(sp)
800004f8:	03a0f025 	move	s8,sp
800004fc:	40027801 	mfc0	v0,$15,1
80000500:	afc20000 	sw	v0,0(s8)
80000504:	8fc20000 	lw	v0,0(s8)
80000508:	304203ff 	andi	v0,v0,0x3ff
8000050c:	03c0e825 	move	sp,s8
80000510:	8fbe000c 	lw	s8,12(sp)
80000514:	27bd0010 	addiu	sp,sp,16
80000518:	03e00008 	jr	ra
8000051c:	00000000 	nop

80000520 <_proctime>:
80000520:	27bdfff0 	addiu	sp,sp,-16
80000524:	afbe000c 	sw	s8,12(sp)
80000528:	03a0f025 	move	s8,sp
8000052c:	40024800 	mfc0	v0,c0_count
80000530:	afc20000 	sw	v0,0(s8)
80000534:	8fc20000 	lw	v0,0(s8)
80000538:	03c0e825 	move	sp,s8
8000053c:	8fbe000c 	lw	s8,12(sp)
80000540:	27bd0010 	addiu	sp,sp,16
80000544:	03e00008 	jr	ra
80000548:	00000000 	nop

8000054c <_timer_write>:
8000054c:	27bdffe0 	addiu	sp,sp,-32
80000550:	afbf001c 	sw	ra,28(sp)
80000554:	afbe0018 	sw	s8,24(sp)
80000558:	03a0f025 	move	s8,sp
8000055c:	afc40020 	sw	a0,32(s8)
80000560:	afc50024 	sw	a1,36(s8)
80000564:	8fc20020 	lw	v0,32(s8)
80000568:	2c420004 	sltiu	v0,v0,4
8000056c:	14400004 	bnez	v0,80000580 <_timer_write+0x34>
80000570:	00000000 	nop
80000574:	24020001 	li	v0,1
80000578:	10000011 	b	800005c0 <_timer_write+0x74>
8000057c:	00000000 	nop
80000580:	0c00013c 	jal	800004f0 <_procid>
80000584:	00000000 	nop
80000588:	afc20010 	sw	v0,16(s8)
8000058c:	8fc20010 	lw	v0,16(s8)
80000590:	00021900 	sll	v1,v0,0x4
80000594:	3c029100 	lui	v0,0x9100
80000598:	24420000 	addiu	v0,v0,0
8000059c:	00621021 	addu	v0,v1,v0
800005a0:	afc20014 	sw	v0,20(s8)
800005a4:	8fc20020 	lw	v0,32(s8)
800005a8:	00021080 	sll	v0,v0,0x2
800005ac:	8fc30014 	lw	v1,20(s8)
800005b0:	00621021 	addu	v0,v1,v0
800005b4:	8fc30024 	lw	v1,36(s8)
800005b8:	ac430000 	sw	v1,0(v0)
800005bc:	00001025 	move	v0,zero
800005c0:	03c0e825 	move	sp,s8
800005c4:	8fbf001c 	lw	ra,28(sp)
800005c8:	8fbe0018 	lw	s8,24(sp)
800005cc:	27bd0020 	addiu	sp,sp,32
800005d0:	03e00008 	jr	ra
800005d4:	00000000 	nop

800005d8 <_timer_read>:
800005d8:	27bdffe0 	addiu	sp,sp,-32
800005dc:	afbf001c 	sw	ra,28(sp)
800005e0:	afbe0018 	sw	s8,24(sp)
800005e4:	03a0f025 	move	s8,sp
800005e8:	afc40020 	sw	a0,32(s8)
800005ec:	afc50024 	sw	a1,36(s8)
800005f0:	8fc20020 	lw	v0,32(s8)
800005f4:	2c420004 	sltiu	v0,v0,4
800005f8:	14400004 	bnez	v0,8000060c <_timer_read+0x34>
800005fc:	00000000 	nop
80000600:	24020001 	li	v0,1
80000604:	10000012 	b	80000650 <_timer_read+0x78>
80000608:	00000000 	nop
8000060c:	0c00013c 	jal	800004f0 <_procid>
80000610:	00000000 	nop
80000614:	afc20010 	sw	v0,16(s8)
80000618:	8fc20010 	lw	v0,16(s8)
8000061c:	00021900 	sll	v1,v0,0x4
80000620:	3c029100 	lui	v0,0x9100
80000624:	24420000 	addiu	v0,v0,0
80000628:	00621021 	addu	v0,v1,v0
8000062c:	afc20014 	sw	v0,20(s8)
80000630:	8fc20020 	lw	v0,32(s8)
80000634:	00021080 	sll	v0,v0,0x2
80000638:	8fc30014 	lw	v1,20(s8)
8000063c:	00621021 	addu	v0,v1,v0
80000640:	8c430000 	lw	v1,0(v0)
80000644:	8fc20024 	lw	v0,36(s8)
80000648:	ac430000 	sw	v1,0(v0)
8000064c:	00001025 	move	v0,zero
80000650:	03c0e825 	move	sp,s8
80000654:	8fbf001c 	lw	ra,28(sp)
80000658:	8fbe0018 	lw	s8,24(sp)
8000065c:	27bd0020 	addiu	sp,sp,32
80000660:	03e00008 	jr	ra
80000664:	00000000 	nop

80000668 <_tty_config>:
80000668:	27bdfff8 	addiu	sp,sp,-8
8000066c:	afbe0004 	sw	s8,4(sp)
80000670:	03a0f025 	move	s8,sp
80000674:	afc40008 	sw	a0,8(s8)
80000678:	afc5000c 	sw	a1,12(s8)
8000067c:	afc60010 	sw	a2,16(s8)
80000680:	8fc20010 	lw	v0,16(s8)
80000684:	10400004 	beqz	v0,80000698 <_tty_config+0x30>
80000688:	00000000 	nop
8000068c:	00001025 	move	v0,zero
80000690:	10000016 	b	800006ec <_tty_config+0x84>
80000694:	00000000 	nop
80000698:	8fc2000c 	lw	v0,12(s8)
8000069c:	2c420004 	sltiu	v0,v0,4
800006a0:	14400004 	bnez	v0,800006b4 <_tty_config+0x4c>
800006a4:	00000000 	nop
800006a8:	00001025 	move	v0,zero
800006ac:	1000000f 	b	800006ec <_tty_config+0x84>
800006b0:	00000000 	nop
800006b4:	8fc3000c 	lw	v1,12(s8)
800006b8:	8fc20010 	lw	v0,16(s8)
800006bc:	00621021 	addu	v0,v1,v0
800006c0:	00021180 	sll	v0,v0,0x6
800006c4:	24440022 	addiu	a0,v0,34
800006c8:	8fc30008 	lw	v1,8(s8)
800006cc:	3c028000 	lui	v0,0x8000
800006d0:	00621821 	addu	v1,v1,v0
800006d4:	3c028200 	lui	v0,0x8200
800006d8:	00042080 	sll	a0,a0,0x2
800006dc:	244203c0 	addiu	v0,v0,960
800006e0:	00821021 	addu	v0,a0,v0
800006e4:	ac430000 	sw	v1,0(v0)
800006e8:	24020001 	li	v0,1
800006ec:	03c0e825 	move	sp,s8
800006f0:	8fbe0004 	lw	s8,4(sp)
800006f4:	27bd0008 	addiu	sp,sp,8
800006f8:	03e00008 	jr	ra
800006fc:	00000000 	nop

80000700 <_tty_write>:
80000700:	27bdffd0 	addiu	sp,sp,-48
80000704:	afbf002c 	sw	ra,44(sp)
80000708:	afbe0028 	sw	s8,40(sp)
8000070c:	03a0f025 	move	s8,sp
80000710:	afc40030 	sw	a0,48(s8)
80000714:	afc50034 	sw	a1,52(s8)
80000718:	0c00013c 	jal	800004f0 <_procid>
8000071c:	00000000 	nop
80000720:	afc20018 	sw	v0,24(s8)
80000724:	3c028200 	lui	v0,0x8200
80000728:	244307c0 	addiu	v1,v0,1984
8000072c:	8fc20018 	lw	v0,24(s8)
80000730:	00621021 	addu	v0,v1,v0
80000734:	90420000 	lbu	v0,0(v0)
80000738:	afc2001c 	sw	v0,28(s8)
8000073c:	8fc30018 	lw	v1,24(s8)
80000740:	8fc2001c 	lw	v0,28(s8)
80000744:	00621021 	addu	v0,v1,v0
80000748:	00021180 	sll	v0,v0,0x6
8000074c:	24430022 	addiu	v1,v0,34
80000750:	3c028200 	lui	v0,0x8200
80000754:	00031880 	sll	v1,v1,0x2
80000758:	244203c0 	addiu	v0,v0,960
8000075c:	00621021 	addu	v0,v1,v0
80000760:	8c420000 	lw	v0,0(v0)
80000764:	afc20010 	sw	v0,16(s8)
80000768:	8fc20010 	lw	v0,16(s8)
8000076c:	14400007 	bnez	v0,8000078c <_tty_write+0x8c>
80000770:	00000000 	nop
80000774:	8fc30018 	lw	v1,24(s8)
80000778:	8fc2001c 	lw	v0,28(s8)
8000077c:	00621021 	addu	v0,v1,v0
80000780:	afc20010 	sw	v0,16(s8)
80000784:	10000005 	b	8000079c <_tty_write+0x9c>
80000788:	00000000 	nop
8000078c:	8fc30010 	lw	v1,16(s8)
80000790:	3c028000 	lui	v0,0x8000
80000794:	00621021 	addu	v0,v1,v0
80000798:	afc20010 	sw	v0,16(s8)
8000079c:	8fc20010 	lw	v0,16(s8)
800007a0:	00021900 	sll	v1,v0,0x4
800007a4:	3c029000 	lui	v0,0x9000
800007a8:	24420000 	addiu	v0,v0,0
800007ac:	00621021 	addu	v0,v1,v0
800007b0:	afc20020 	sw	v0,32(s8)
800007b4:	afc00014 	sw	zero,20(s8)
800007b8:	10000012 	b	80000804 <_tty_write+0x104>
800007bc:	00000000 	nop
800007c0:	8fc20020 	lw	v0,32(s8)
800007c4:	24420004 	addiu	v0,v0,4
800007c8:	8c420000 	lw	v0,0(v0)
800007cc:	30430002 	andi	v1,v0,0x2
800007d0:	24020002 	li	v0,2
800007d4:	10620012 	beq	v1,v0,80000820 <_tty_write+0x120>
800007d8:	00000000 	nop
800007dc:	8fc30030 	lw	v1,48(s8)
800007e0:	8fc20014 	lw	v0,20(s8)
800007e4:	00621021 	addu	v0,v1,v0
800007e8:	80420000 	lb	v0,0(v0)
800007ec:	00401825 	move	v1,v0
800007f0:	8fc20020 	lw	v0,32(s8)
800007f4:	ac430000 	sw	v1,0(v0)
800007f8:	8fc20014 	lw	v0,20(s8)
800007fc:	24420001 	addiu	v0,v0,1
80000800:	afc20014 	sw	v0,20(s8)
80000804:	8fc30014 	lw	v1,20(s8)
80000808:	8fc20034 	lw	v0,52(s8)
8000080c:	0062102b 	sltu	v0,v1,v0
80000810:	1440ffeb 	bnez	v0,800007c0 <_tty_write+0xc0>
80000814:	00000000 	nop
80000818:	10000002 	b	80000824 <_tty_write+0x124>
8000081c:	00000000 	nop
80000820:	00000000 	nop
80000824:	8fc20014 	lw	v0,20(s8)
80000828:	03c0e825 	move	sp,s8
8000082c:	8fbf002c 	lw	ra,44(sp)
80000830:	8fbe0028 	lw	s8,40(sp)
80000834:	27bd0030 	addiu	sp,sp,48
80000838:	03e00008 	jr	ra
8000083c:	00000000 	nop

80000840 <_tty_read_irq>:
80000840:	27bdffd8 	addiu	sp,sp,-40
80000844:	afbf0024 	sw	ra,36(sp)
80000848:	afbe0020 	sw	s8,32(sp)
8000084c:	03a0f025 	move	s8,sp
80000850:	afc40028 	sw	a0,40(s8)
80000854:	afc5002c 	sw	a1,44(s8)
80000858:	0c00013c 	jal	800004f0 <_procid>
8000085c:	00000000 	nop
80000860:	afc20014 	sw	v0,20(s8)
80000864:	3c028200 	lui	v0,0x8200
80000868:	244307c0 	addiu	v1,v0,1984
8000086c:	8fc20014 	lw	v0,20(s8)
80000870:	00621021 	addu	v0,v1,v0
80000874:	90420000 	lbu	v0,0(v0)
80000878:	afc20018 	sw	v0,24(s8)
8000087c:	8fc30014 	lw	v1,20(s8)
80000880:	8fc20018 	lw	v0,24(s8)
80000884:	00621021 	addu	v0,v1,v0
80000888:	00021180 	sll	v0,v0,0x6
8000088c:	24430022 	addiu	v1,v0,34
80000890:	3c028200 	lui	v0,0x8200
80000894:	00031880 	sll	v1,v1,0x2
80000898:	244203c0 	addiu	v0,v0,960
8000089c:	00621021 	addu	v0,v1,v0
800008a0:	8c420000 	lw	v0,0(v0)
800008a4:	afc20010 	sw	v0,16(s8)
800008a8:	8fc20010 	lw	v0,16(s8)
800008ac:	14400007 	bnez	v0,800008cc <_tty_read_irq+0x8c>
800008b0:	00000000 	nop
800008b4:	8fc30014 	lw	v1,20(s8)
800008b8:	8fc20018 	lw	v0,24(s8)
800008bc:	00621021 	addu	v0,v1,v0
800008c0:	afc20010 	sw	v0,16(s8)
800008c4:	10000005 	b	800008dc <_tty_read_irq+0x9c>
800008c8:	00000000 	nop
800008cc:	8fc30010 	lw	v1,16(s8)
800008d0:	3c028000 	lui	v0,0x8000
800008d4:	00621021 	addu	v0,v1,v0
800008d8:	afc20010 	sw	v0,16(s8)
800008dc:	3c028100 	lui	v0,0x8100
800008e0:	24430020 	addiu	v1,v0,32
800008e4:	8fc20010 	lw	v0,16(s8)
800008e8:	00621021 	addu	v0,v1,v0
800008ec:	90420000 	lbu	v0,0(v0)
800008f0:	304200ff 	andi	v0,v0,0xff
800008f4:	14400004 	bnez	v0,80000908 <_tty_read_irq+0xc8>
800008f8:	00000000 	nop
800008fc:	00001025 	move	v0,zero
80000900:	10000011 	b	80000948 <_tty_read_irq+0x108>
80000904:	00000000 	nop
80000908:	3c028100 	lui	v0,0x8100
8000090c:	2443001c 	addiu	v1,v0,28
80000910:	8fc20010 	lw	v0,16(s8)
80000914:	00621021 	addu	v0,v1,v0
80000918:	90420000 	lbu	v0,0(v0)
8000091c:	304200ff 	andi	v0,v0,0xff
80000920:	00021e00 	sll	v1,v0,0x18
80000924:	00031e03 	sra	v1,v1,0x18
80000928:	8fc20028 	lw	v0,40(s8)
8000092c:	a0430000 	sb	v1,0(v0)
80000930:	3c028100 	lui	v0,0x8100
80000934:	24430020 	addiu	v1,v0,32
80000938:	8fc20010 	lw	v0,16(s8)
8000093c:	00621021 	addu	v0,v1,v0
80000940:	a0400000 	sb	zero,0(v0)
80000944:	24020001 	li	v0,1
80000948:	03c0e825 	move	sp,s8
8000094c:	8fbf0024 	lw	ra,36(sp)
80000950:	8fbe0020 	lw	s8,32(sp)
80000954:	27bd0028 	addiu	sp,sp,40
80000958:	03e00008 	jr	ra
8000095c:	00000000 	nop

80000960 <_tty_read>:
80000960:	27bdffd8 	addiu	sp,sp,-40
80000964:	afbf0024 	sw	ra,36(sp)
80000968:	afbe0020 	sw	s8,32(sp)
8000096c:	03a0f025 	move	s8,sp
80000970:	afc40028 	sw	a0,40(s8)
80000974:	afc5002c 	sw	a1,44(s8)
80000978:	0c00013c 	jal	800004f0 <_procid>
8000097c:	00000000 	nop
80000980:	afc20014 	sw	v0,20(s8)
80000984:	3c028200 	lui	v0,0x8200
80000988:	244307c0 	addiu	v1,v0,1984
8000098c:	8fc20014 	lw	v0,20(s8)
80000990:	00621021 	addu	v0,v1,v0
80000994:	90420000 	lbu	v0,0(v0)
80000998:	afc20018 	sw	v0,24(s8)
8000099c:	8fc30014 	lw	v1,20(s8)
800009a0:	8fc20018 	lw	v0,24(s8)
800009a4:	00621021 	addu	v0,v1,v0
800009a8:	00021180 	sll	v0,v0,0x6
800009ac:	24430022 	addiu	v1,v0,34
800009b0:	3c028200 	lui	v0,0x8200
800009b4:	00031880 	sll	v1,v1,0x2
800009b8:	244203c0 	addiu	v0,v0,960
800009bc:	00621021 	addu	v0,v1,v0
800009c0:	8c420000 	lw	v0,0(v0)
800009c4:	afc20010 	sw	v0,16(s8)
800009c8:	8fc20010 	lw	v0,16(s8)
800009cc:	14400007 	bnez	v0,800009ec <_tty_read+0x8c>
800009d0:	00000000 	nop
800009d4:	8fc30014 	lw	v1,20(s8)
800009d8:	8fc20018 	lw	v0,24(s8)
800009dc:	00621021 	addu	v0,v1,v0
800009e0:	afc20010 	sw	v0,16(s8)
800009e4:	10000005 	b	800009fc <_tty_read+0x9c>
800009e8:	00000000 	nop
800009ec:	8fc30010 	lw	v1,16(s8)
800009f0:	3c028000 	lui	v0,0x8000
800009f4:	00621021 	addu	v0,v1,v0
800009f8:	afc20010 	sw	v0,16(s8)
800009fc:	8fc20010 	lw	v0,16(s8)
80000a00:	00021900 	sll	v1,v0,0x4
80000a04:	3c029000 	lui	v0,0x9000
80000a08:	24420000 	addiu	v0,v0,0
80000a0c:	00621021 	addu	v0,v1,v0
80000a10:	afc2001c 	sw	v0,28(s8)
80000a14:	8fc2001c 	lw	v0,28(s8)
80000a18:	24420004 	addiu	v0,v0,4
80000a1c:	8c420000 	lw	v0,0(v0)
80000a20:	30430001 	andi	v1,v0,0x1
80000a24:	24020001 	li	v0,1
80000a28:	10620004 	beq	v1,v0,80000a3c <_tty_read+0xdc>
80000a2c:	00000000 	nop
80000a30:	00001025 	move	v0,zero
80000a34:	10000009 	b	80000a5c <_tty_read+0xfc>
80000a38:	00000000 	nop
80000a3c:	8fc2001c 	lw	v0,28(s8)
80000a40:	24420008 	addiu	v0,v0,8
80000a44:	8c420000 	lw	v0,0(v0)
80000a48:	00021e00 	sll	v1,v0,0x18
80000a4c:	00031e03 	sra	v1,v1,0x18
80000a50:	8fc20028 	lw	v0,40(s8)
80000a54:	a0430000 	sb	v1,0(v0)
80000a58:	24020001 	li	v0,1
80000a5c:	03c0e825 	move	sp,s8
80000a60:	8fbf0024 	lw	ra,36(sp)
80000a64:	8fbe0020 	lw	s8,32(sp)
80000a68:	27bd0028 	addiu	sp,sp,40
80000a6c:	03e00008 	jr	ra
80000a70:	00000000 	nop

80000a74 <_icu_write>:
80000a74:	27bdffe0 	addiu	sp,sp,-32
80000a78:	afbf001c 	sw	ra,28(sp)
80000a7c:	afbe0018 	sw	s8,24(sp)
80000a80:	03a0f025 	move	s8,sp
80000a84:	afc40020 	sw	a0,32(s8)
80000a88:	afc50024 	sw	a1,36(s8)
80000a8c:	8fc20020 	lw	v0,32(s8)
80000a90:	2c420005 	sltiu	v0,v0,5
80000a94:	14400004 	bnez	v0,80000aa8 <_icu_write+0x34>
80000a98:	00000000 	nop
80000a9c:	24020001 	li	v0,1
80000aa0:	10000011 	b	80000ae8 <_icu_write+0x74>
80000aa4:	00000000 	nop
80000aa8:	0c00013c 	jal	800004f0 <_procid>
80000aac:	00000000 	nop
80000ab0:	afc20010 	sw	v0,16(s8)
80000ab4:	8fc20010 	lw	v0,16(s8)
80000ab8:	00021940 	sll	v1,v0,0x5
80000abc:	3c029f00 	lui	v0,0x9f00
80000ac0:	24420000 	addiu	v0,v0,0
80000ac4:	00621021 	addu	v0,v1,v0
80000ac8:	afc20014 	sw	v0,20(s8)
80000acc:	8fc20020 	lw	v0,32(s8)
80000ad0:	00021080 	sll	v0,v0,0x2
80000ad4:	8fc30014 	lw	v1,20(s8)
80000ad8:	00621021 	addu	v0,v1,v0
80000adc:	8fc30024 	lw	v1,36(s8)
80000ae0:	ac430000 	sw	v1,0(v0)
80000ae4:	00001025 	move	v0,zero
80000ae8:	03c0e825 	move	sp,s8
80000aec:	8fbf001c 	lw	ra,28(sp)
80000af0:	8fbe0018 	lw	s8,24(sp)
80000af4:	27bd0020 	addiu	sp,sp,32
80000af8:	03e00008 	jr	ra
80000afc:	00000000 	nop

80000b00 <_icu_read>:
80000b00:	27bdffe0 	addiu	sp,sp,-32
80000b04:	afbf001c 	sw	ra,28(sp)
80000b08:	afbe0018 	sw	s8,24(sp)
80000b0c:	03a0f025 	move	s8,sp
80000b10:	afc40020 	sw	a0,32(s8)
80000b14:	afc50024 	sw	a1,36(s8)
80000b18:	8fc20020 	lw	v0,32(s8)
80000b1c:	2c420005 	sltiu	v0,v0,5
80000b20:	14400004 	bnez	v0,80000b34 <_icu_read+0x34>
80000b24:	00000000 	nop
80000b28:	24020001 	li	v0,1
80000b2c:	10000012 	b	80000b78 <_icu_read+0x78>
80000b30:	00000000 	nop
80000b34:	0c00013c 	jal	800004f0 <_procid>
80000b38:	00000000 	nop
80000b3c:	afc20010 	sw	v0,16(s8)
80000b40:	8fc20010 	lw	v0,16(s8)
80000b44:	00021940 	sll	v1,v0,0x5
80000b48:	3c029f00 	lui	v0,0x9f00
80000b4c:	24420000 	addiu	v0,v0,0
80000b50:	00621021 	addu	v0,v1,v0
80000b54:	afc20014 	sw	v0,20(s8)
80000b58:	8fc20020 	lw	v0,32(s8)
80000b5c:	00021080 	sll	v0,v0,0x2
80000b60:	8fc30014 	lw	v1,20(s8)
80000b64:	00621021 	addu	v0,v1,v0
80000b68:	8c430000 	lw	v1,0(v0)
80000b6c:	8fc20024 	lw	v0,36(s8)
80000b70:	ac430000 	sw	v1,0(v0)
80000b74:	00001025 	move	v0,zero
80000b78:	03c0e825 	move	sp,s8
80000b7c:	8fbf001c 	lw	ra,28(sp)
80000b80:	8fbe0018 	lw	s8,24(sp)
80000b84:	27bd0020 	addiu	sp,sp,32
80000b88:	03e00008 	jr	ra
80000b8c:	00000000 	nop

80000b90 <_gcd_write>:
80000b90:	27bdfff0 	addiu	sp,sp,-16
80000b94:	afbe000c 	sw	s8,12(sp)
80000b98:	03a0f025 	move	s8,sp
80000b9c:	afc40010 	sw	a0,16(s8)
80000ba0:	afc50014 	sw	a1,20(s8)
80000ba4:	8fc20010 	lw	v0,16(s8)
80000ba8:	2c420004 	sltiu	v0,v0,4
80000bac:	14400004 	bnez	v0,80000bc0 <_gcd_write+0x30>
80000bb0:	00000000 	nop
80000bb4:	24020001 	li	v0,1
80000bb8:	1000000b 	b	80000be8 <_gcd_write+0x58>
80000bbc:	00000000 	nop
80000bc0:	3c029500 	lui	v0,0x9500
80000bc4:	24420000 	addiu	v0,v0,0
80000bc8:	afc20000 	sw	v0,0(s8)
80000bcc:	8fc20010 	lw	v0,16(s8)
80000bd0:	00021080 	sll	v0,v0,0x2
80000bd4:	8fc30000 	lw	v1,0(s8)
80000bd8:	00621021 	addu	v0,v1,v0
80000bdc:	8fc30014 	lw	v1,20(s8)
80000be0:	ac430000 	sw	v1,0(v0)
80000be4:	00001025 	move	v0,zero
80000be8:	03c0e825 	move	sp,s8
80000bec:	8fbe000c 	lw	s8,12(sp)
80000bf0:	27bd0010 	addiu	sp,sp,16
80000bf4:	03e00008 	jr	ra
80000bf8:	00000000 	nop

80000bfc <_gcd_read>:
80000bfc:	27bdfff0 	addiu	sp,sp,-16
80000c00:	afbe000c 	sw	s8,12(sp)
80000c04:	03a0f025 	move	s8,sp
80000c08:	afc40010 	sw	a0,16(s8)
80000c0c:	afc50014 	sw	a1,20(s8)
80000c10:	8fc20010 	lw	v0,16(s8)
80000c14:	2c420004 	sltiu	v0,v0,4
80000c18:	14400004 	bnez	v0,80000c2c <_gcd_read+0x30>
80000c1c:	00000000 	nop
80000c20:	24020001 	li	v0,1
80000c24:	1000000c 	b	80000c58 <_gcd_read+0x5c>
80000c28:	00000000 	nop
80000c2c:	3c029500 	lui	v0,0x9500
80000c30:	24420000 	addiu	v0,v0,0
80000c34:	afc20000 	sw	v0,0(s8)
80000c38:	8fc20010 	lw	v0,16(s8)
80000c3c:	00021080 	sll	v0,v0,0x2
80000c40:	8fc30000 	lw	v1,0(s8)
80000c44:	00621021 	addu	v0,v1,v0
80000c48:	8c430000 	lw	v1,0(v0)
80000c4c:	8fc20014 	lw	v0,20(s8)
80000c50:	ac430000 	sw	v1,0(v0)
80000c54:	00001025 	move	v0,zero
80000c58:	03c0e825 	move	sp,s8
80000c5c:	8fbe000c 	lw	s8,12(sp)
80000c60:	27bd0010 	addiu	sp,sp,16
80000c64:	03e00008 	jr	ra
80000c68:	00000000 	nop

80000c6c <_ioc_get_lock>:
80000c6c:	27bdfff8 	addiu	sp,sp,-8
80000c70:	afbe0004 	sw	s8,4(sp)
80000c74:	afb00000 	sw	s0,0(sp)
80000c78:	03a0f025 	move	s8,sp
80000c7c:	3c028100 	lui	v0,0x8100
80000c80:	24500018 	addiu	s0,v0,24

80000c84 <_ioc_llsc>:
80000c84:	c2020000 	ll	v0,0(s0)
80000c88:	1440fffe 	bnez	v0,80000c84 <_ioc_llsc>
80000c8c:	00000000 	nop
80000c90:	24030001 	li	v1,1
80000c94:	e2030000 	sc	v1,0(s0)
80000c98:	1060fffa 	beqz	v1,80000c84 <_ioc_llsc>
80000c9c:	00000000 	nop
80000ca0:	00000000 	nop
80000ca4:	03c0e825 	move	sp,s8
80000ca8:	8fbe0004 	lw	s8,4(sp)
80000cac:	8fb00000 	lw	s0,0(sp)
80000cb0:	27bd0008 	addiu	sp,sp,8
80000cb4:	03e00008 	jr	ra
80000cb8:	00000000 	nop

80000cbc <_ioc_write>:
80000cbc:	27bdffe0 	addiu	sp,sp,-32
80000cc0:	afbf001c 	sw	ra,28(sp)
80000cc4:	afbe0018 	sw	s8,24(sp)
80000cc8:	03a0f025 	move	s8,sp
80000ccc:	afc40020 	sw	a0,32(s8)
80000cd0:	afc50024 	sw	a1,36(s8)
80000cd4:	afc60028 	sw	a2,40(s8)
80000cd8:	3c029200 	lui	v0,0x9200
80000cdc:	24420000 	addiu	v0,v0,0
80000ce0:	afc20010 	sw	v0,16(s8)
80000ce4:	8fc20010 	lw	v0,16(s8)
80000ce8:	8c42001c 	lw	v0,28(v0)
80000cec:	afc20014 	sw	v0,20(s8)
80000cf0:	8fc20024 	lw	v0,36(s8)
80000cf4:	04400008 	bltz	v0,80000d18 <_ioc_write+0x5c>
80000cf8:	00000000 	nop
80000cfc:	8fc30014 	lw	v1,20(s8)
80000d00:	8fc20028 	lw	v0,40(s8)
80000d04:	70621802 	mul	v1,v1,v0
80000d08:	8fc20024 	lw	v0,36(s8)
80000d0c:	00621021 	addu	v0,v1,v0
80000d10:	04410004 	bgez	v0,80000d24 <_ioc_write+0x68>
80000d14:	00000000 	nop
80000d18:	24020001 	li	v0,1
80000d1c:	10000017 	b	80000d7c <_ioc_write+0xc0>
80000d20:	00000000 	nop
80000d24:	0c00031b 	jal	80000c6c <_ioc_get_lock>
80000d28:	00000000 	nop
80000d2c:	8fc30024 	lw	v1,36(s8)
80000d30:	8fc20010 	lw	v0,16(s8)
80000d34:	ac430000 	sw	v1,0(v0)
80000d38:	8fc20010 	lw	v0,16(s8)
80000d3c:	24420008 	addiu	v0,v0,8
80000d40:	8fc30028 	lw	v1,40(s8)
80000d44:	ac430000 	sw	v1,0(v0)
80000d48:	8fc20010 	lw	v0,16(s8)
80000d4c:	24420004 	addiu	v0,v0,4
80000d50:	8fc30020 	lw	v1,32(s8)
80000d54:	ac430000 	sw	v1,0(v0)
80000d58:	8fc20010 	lw	v0,16(s8)
80000d5c:	24420014 	addiu	v0,v0,20
80000d60:	24030001 	li	v1,1
80000d64:	ac430000 	sw	v1,0(v0)
80000d68:	8fc20010 	lw	v0,16(s8)
80000d6c:	2442000c 	addiu	v0,v0,12
80000d70:	24030002 	li	v1,2
80000d74:	ac430000 	sw	v1,0(v0)
80000d78:	00001025 	move	v0,zero
80000d7c:	03c0e825 	move	sp,s8
80000d80:	8fbf001c 	lw	ra,28(sp)
80000d84:	8fbe0018 	lw	s8,24(sp)
80000d88:	27bd0020 	addiu	sp,sp,32
80000d8c:	03e00008 	jr	ra
80000d90:	00000000 	nop

80000d94 <_ioc_read>:
80000d94:	27bdffe0 	addiu	sp,sp,-32
80000d98:	afbf001c 	sw	ra,28(sp)
80000d9c:	afbe0018 	sw	s8,24(sp)
80000da0:	03a0f025 	move	s8,sp
80000da4:	afc40020 	sw	a0,32(s8)
80000da8:	afc50024 	sw	a1,36(s8)
80000dac:	afc60028 	sw	a2,40(s8)
80000db0:	3c029200 	lui	v0,0x9200
80000db4:	24420000 	addiu	v0,v0,0
80000db8:	afc20010 	sw	v0,16(s8)
80000dbc:	8fc20010 	lw	v0,16(s8)
80000dc0:	8c42001c 	lw	v0,28(v0)
80000dc4:	afc20014 	sw	v0,20(s8)
80000dc8:	8fc20024 	lw	v0,36(s8)
80000dcc:	04400008 	bltz	v0,80000df0 <_ioc_read+0x5c>
80000dd0:	00000000 	nop
80000dd4:	8fc30014 	lw	v1,20(s8)
80000dd8:	8fc20028 	lw	v0,40(s8)
80000ddc:	70621802 	mul	v1,v1,v0
80000de0:	8fc20024 	lw	v0,36(s8)
80000de4:	00621021 	addu	v0,v1,v0
80000de8:	04410004 	bgez	v0,80000dfc <_ioc_read+0x68>
80000dec:	00000000 	nop
80000df0:	24020001 	li	v0,1
80000df4:	10000017 	b	80000e54 <_ioc_read+0xc0>
80000df8:	00000000 	nop
80000dfc:	0c00031b 	jal	80000c6c <_ioc_get_lock>
80000e00:	00000000 	nop
80000e04:	8fc30024 	lw	v1,36(s8)
80000e08:	8fc20010 	lw	v0,16(s8)
80000e0c:	ac430000 	sw	v1,0(v0)
80000e10:	8fc20010 	lw	v0,16(s8)
80000e14:	24420008 	addiu	v0,v0,8
80000e18:	8fc30028 	lw	v1,40(s8)
80000e1c:	ac430000 	sw	v1,0(v0)
80000e20:	8fc20010 	lw	v0,16(s8)
80000e24:	24420004 	addiu	v0,v0,4
80000e28:	8fc30020 	lw	v1,32(s8)
80000e2c:	ac430000 	sw	v1,0(v0)
80000e30:	8fc20010 	lw	v0,16(s8)
80000e34:	24420014 	addiu	v0,v0,20
80000e38:	24030001 	li	v1,1
80000e3c:	ac430000 	sw	v1,0(v0)
80000e40:	8fc20010 	lw	v0,16(s8)
80000e44:	2442000c 	addiu	v0,v0,12
80000e48:	24030001 	li	v1,1
80000e4c:	ac430000 	sw	v1,0(v0)
80000e50:	00001025 	move	v0,zero
80000e54:	03c0e825 	move	sp,s8
80000e58:	8fbf001c 	lw	ra,28(sp)
80000e5c:	8fbe0018 	lw	s8,24(sp)
80000e60:	27bd0020 	addiu	sp,sp,32
80000e64:	03e00008 	jr	ra
80000e68:	00000000 	nop

80000e6c <_ioc_completed>:
80000e6c:	27bdfff0 	addiu	sp,sp,-16
80000e70:	afbe000c 	sw	s8,12(sp)
80000e74:	03a0f025 	move	s8,sp
80000e78:	10000002 	b	80000e84 <_ioc_completed+0x18>
80000e7c:	00000000 	nop
80000e80:	00000000 	nop
80000e84:	3c028100 	lui	v0,0x8100
80000e88:	90420015 	lbu	v0,21(v0)
80000e8c:	304200ff 	andi	v0,v0,0xff
80000e90:	1040fffb 	beqz	v0,80000e80 <_ioc_completed+0x14>
80000e94:	00000000 	nop
80000e98:	3c028100 	lui	v0,0x8100
80000e9c:	90420014 	lbu	v0,20(v0)
80000ea0:	304300ff 	andi	v1,v0,0xff
80000ea4:	24020002 	li	v0,2
80000ea8:	1062000b 	beq	v1,v0,80000ed8 <_ioc_completed+0x6c>
80000eac:	00000000 	nop
80000eb0:	3c028100 	lui	v0,0x8100
80000eb4:	90420014 	lbu	v0,20(v0)
80000eb8:	304300ff 	andi	v1,v0,0xff
80000ebc:	24020003 	li	v0,3
80000ec0:	10620005 	beq	v1,v0,80000ed8 <_ioc_completed+0x6c>
80000ec4:	00000000 	nop
80000ec8:	24020001 	li	v0,1
80000ecc:	afc20000 	sw	v0,0(s8)
80000ed0:	10000002 	b	80000edc <_ioc_completed+0x70>
80000ed4:	00000000 	nop
80000ed8:	afc00000 	sw	zero,0(s8)
80000edc:	3c028100 	lui	v0,0x8100
80000ee0:	a0400015 	sb	zero,21(v0)
80000ee4:	3c028100 	lui	v0,0x8100
80000ee8:	ac400018 	sw	zero,24(v0)
80000eec:	8fc20000 	lw	v0,0(s8)
80000ef0:	03c0e825 	move	sp,s8
80000ef4:	8fbe000c 	lw	s8,12(sp)
80000ef8:	27bd0010 	addiu	sp,sp,16
80000efc:	03e00008 	jr	ra
80000f00:	00000000 	nop

80000f04 <_fb_sync_write>:
80000f04:	27bdffe0 	addiu	sp,sp,-32
80000f08:	afbf001c 	sw	ra,28(sp)
80000f0c:	afbe0018 	sw	s8,24(sp)
80000f10:	03a0f025 	move	s8,sp
80000f14:	afc40020 	sw	a0,32(s8)
80000f18:	afc50024 	sw	a1,36(s8)
80000f1c:	afc60028 	sw	a2,40(s8)
80000f20:	8fc20024 	lw	v0,36(s8)
80000f24:	04400006 	bltz	v0,80000f40 <_fb_sync_write+0x3c>
80000f28:	00000000 	nop
80000f2c:	8fc30024 	lw	v1,36(s8)
80000f30:	8fc20028 	lw	v0,40(s8)
80000f34:	00621021 	addu	v0,v1,v0
80000f38:	04410004 	bgez	v0,80000f4c <_fb_sync_write+0x48>
80000f3c:	00000000 	nop
80000f40:	24020001 	li	v0,1
80000f44:	1000000c 	b	80000f78 <_fb_sync_write+0x74>
80000f48:	00000000 	nop
80000f4c:	8fc30020 	lw	v1,32(s8)
80000f50:	3c029600 	lui	v0,0x9600
80000f54:	24420000 	addiu	v0,v0,0
80000f58:	00621021 	addu	v0,v1,v0
80000f5c:	afc20010 	sw	v0,16(s8)
80000f60:	8fc60028 	lw	a2,40(s8)
80000f64:	8fc50024 	lw	a1,36(s8)
80000f68:	8fc40010 	lw	a0,16(s8)
80000f6c:	0c000100 	jal	80000400 <memcpy>
80000f70:	00000000 	nop
80000f74:	00001025 	move	v0,zero
80000f78:	03c0e825 	move	sp,s8
80000f7c:	8fbf001c 	lw	ra,28(sp)
80000f80:	8fbe0018 	lw	s8,24(sp)
80000f84:	27bd0020 	addiu	sp,sp,32
80000f88:	03e00008 	jr	ra
80000f8c:	00000000 	nop

80000f90 <_fb_sync_read>:
80000f90:	27bdffe0 	addiu	sp,sp,-32
80000f94:	afbf001c 	sw	ra,28(sp)
80000f98:	afbe0018 	sw	s8,24(sp)
80000f9c:	03a0f025 	move	s8,sp
80000fa0:	afc40020 	sw	a0,32(s8)
80000fa4:	afc50024 	sw	a1,36(s8)
80000fa8:	afc60028 	sw	a2,40(s8)
80000fac:	8fc20024 	lw	v0,36(s8)
80000fb0:	04400006 	bltz	v0,80000fcc <_fb_sync_read+0x3c>
80000fb4:	00000000 	nop
80000fb8:	8fc30024 	lw	v1,36(s8)
80000fbc:	8fc20028 	lw	v0,40(s8)
80000fc0:	00621021 	addu	v0,v1,v0
80000fc4:	04410004 	bgez	v0,80000fd8 <_fb_sync_read+0x48>
80000fc8:	00000000 	nop
80000fcc:	24020001 	li	v0,1
80000fd0:	1000000c 	b	80001004 <_fb_sync_read+0x74>
80000fd4:	00000000 	nop
80000fd8:	8fc30020 	lw	v1,32(s8)
80000fdc:	3c029600 	lui	v0,0x9600
80000fe0:	24420000 	addiu	v0,v0,0
80000fe4:	00621021 	addu	v0,v1,v0
80000fe8:	afc20010 	sw	v0,16(s8)
80000fec:	8fc60028 	lw	a2,40(s8)
80000ff0:	8fc50010 	lw	a1,16(s8)
80000ff4:	8fc40024 	lw	a0,36(s8)
80000ff8:	0c000100 	jal	80000400 <memcpy>
80000ffc:	00000000 	nop
80001000:	00001025 	move	v0,zero
80001004:	03c0e825 	move	sp,s8
80001008:	8fbf001c 	lw	ra,28(sp)
8000100c:	8fbe0018 	lw	s8,24(sp)
80001010:	27bd0020 	addiu	sp,sp,32
80001014:	03e00008 	jr	ra
80001018:	00000000 	nop

8000101c <_fb_write>:
8000101c:	27bdffd0 	addiu	sp,sp,-48
80001020:	afbf002c 	sw	ra,44(sp)
80001024:	afbe0028 	sw	s8,40(sp)
80001028:	03a0f025 	move	s8,sp
8000102c:	afc40030 	sw	a0,48(s8)
80001030:	afc50034 	sw	a1,52(s8)
80001034:	afc60038 	sw	a2,56(s8)
80001038:	8fc20034 	lw	v0,52(s8)
8000103c:	04400006 	bltz	v0,80001058 <_fb_write+0x3c>
80001040:	00000000 	nop
80001044:	8fc30034 	lw	v1,52(s8)
80001048:	8fc20038 	lw	v0,56(s8)
8000104c:	00621021 	addu	v0,v1,v0
80001050:	04410004 	bgez	v0,80001064 <_fb_write+0x48>
80001054:	00000000 	nop
80001058:	24020001 	li	v0,1
8000105c:	1000003f 	b	8000115c <_fb_write+0x140>
80001060:	00000000 	nop
80001064:	0c00013c 	jal	800004f0 <_procid>
80001068:	00000000 	nop
8000106c:	afc20014 	sw	v0,20(s8)
80001070:	8fc30030 	lw	v1,48(s8)
80001074:	3c029600 	lui	v0,0x9600
80001078:	24420000 	addiu	v0,v0,0
8000107c:	00621021 	addu	v0,v1,v0
80001080:	afc20018 	sw	v0,24(s8)
80001084:	8fc20014 	lw	v0,20(s8)
80001088:	00021940 	sll	v1,v0,0x5
8000108c:	3c029300 	lui	v0,0x9300
80001090:	24420000 	addiu	v0,v0,0
80001094:	00621021 	addu	v0,v1,v0
80001098:	afc2001c 	sw	v0,28(s8)
8000109c:	10000012 	b	800010e8 <_fb_write+0xcc>
800010a0:	00000000 	nop
800010a4:	0c000148 	jal	80000520 <_proctime>
800010a8:	00000000 	nop
800010ac:	00021100 	sll	v0,v0,0x4
800010b0:	304200f0 	andi	v0,v0,0xf0
800010b4:	afc20020 	sw	v0,32(s8)
800010b8:	afc00010 	sw	zero,16(s8)
800010bc:	10000005 	b	800010d4 <_fb_write+0xb8>
800010c0:	00000000 	nop
800010c4:	00000000 	nop
800010c8:	8fc20010 	lw	v0,16(s8)
800010cc:	24420001 	addiu	v0,v0,1
800010d0:	afc20010 	sw	v0,16(s8)
800010d4:	8fc30010 	lw	v1,16(s8)
800010d8:	8fc20020 	lw	v0,32(s8)
800010dc:	0062102b 	sltu	v0,v1,v0
800010e0:	1440fff8 	bnez	v0,800010c4 <_fb_write+0xa8>
800010e4:	00000000 	nop
800010e8:	3c028100 	lui	v0,0x8100
800010ec:	24430010 	addiu	v1,v0,16
800010f0:	8fc20014 	lw	v0,20(s8)
800010f4:	00621021 	addu	v0,v1,v0
800010f8:	90420000 	lbu	v0,0(v0)
800010fc:	304200ff 	andi	v0,v0,0xff
80001100:	1440ffe8 	bnez	v0,800010a4 <_fb_write+0x88>
80001104:	00000000 	nop
80001108:	3c028100 	lui	v0,0x8100
8000110c:	24430010 	addiu	v1,v0,16
80001110:	8fc20014 	lw	v0,20(s8)
80001114:	00621021 	addu	v0,v1,v0
80001118:	24030001 	li	v1,1
8000111c:	a0430000 	sb	v1,0(v0)
80001120:	8fc2001c 	lw	v0,28(s8)
80001124:	24420010 	addiu	v0,v0,16
80001128:	ac400000 	sw	zero,0(v0)
8000112c:	8fc30034 	lw	v1,52(s8)
80001130:	8fc2001c 	lw	v0,28(s8)
80001134:	ac430000 	sw	v1,0(v0)
80001138:	8fc2001c 	lw	v0,28(s8)
8000113c:	24420004 	addiu	v0,v0,4
80001140:	8fc30018 	lw	v1,24(s8)
80001144:	ac430000 	sw	v1,0(v0)
80001148:	8fc2001c 	lw	v0,28(s8)
8000114c:	24420008 	addiu	v0,v0,8
80001150:	8fc30038 	lw	v1,56(s8)
80001154:	ac430000 	sw	v1,0(v0)
80001158:	00001025 	move	v0,zero
8000115c:	03c0e825 	move	sp,s8
80001160:	8fbf002c 	lw	ra,44(sp)
80001164:	8fbe0028 	lw	s8,40(sp)
80001168:	27bd0030 	addiu	sp,sp,48
8000116c:	03e00008 	jr	ra
80001170:	00000000 	nop

80001174 <_fb_read>:
80001174:	27bdffd0 	addiu	sp,sp,-48
80001178:	afbf002c 	sw	ra,44(sp)
8000117c:	afbe0028 	sw	s8,40(sp)
80001180:	03a0f025 	move	s8,sp
80001184:	afc40030 	sw	a0,48(s8)
80001188:	afc50034 	sw	a1,52(s8)
8000118c:	afc60038 	sw	a2,56(s8)
80001190:	8fc20034 	lw	v0,52(s8)
80001194:	04400006 	bltz	v0,800011b0 <_fb_read+0x3c>
80001198:	00000000 	nop
8000119c:	8fc30034 	lw	v1,52(s8)
800011a0:	8fc20038 	lw	v0,56(s8)
800011a4:	00621021 	addu	v0,v1,v0
800011a8:	04410004 	bgez	v0,800011bc <_fb_read+0x48>
800011ac:	00000000 	nop
800011b0:	24020001 	li	v0,1
800011b4:	1000003f 	b	800012b4 <_fb_read+0x140>
800011b8:	00000000 	nop
800011bc:	0c00013c 	jal	800004f0 <_procid>
800011c0:	00000000 	nop
800011c4:	afc20014 	sw	v0,20(s8)
800011c8:	8fc30030 	lw	v1,48(s8)
800011cc:	3c029600 	lui	v0,0x9600
800011d0:	24420000 	addiu	v0,v0,0
800011d4:	00621021 	addu	v0,v1,v0
800011d8:	afc20018 	sw	v0,24(s8)
800011dc:	8fc20014 	lw	v0,20(s8)
800011e0:	00021940 	sll	v1,v0,0x5
800011e4:	3c029300 	lui	v0,0x9300
800011e8:	24420000 	addiu	v0,v0,0
800011ec:	00621021 	addu	v0,v1,v0
800011f0:	afc2001c 	sw	v0,28(s8)
800011f4:	10000012 	b	80001240 <_fb_read+0xcc>
800011f8:	00000000 	nop
800011fc:	0c000148 	jal	80000520 <_proctime>
80001200:	00000000 	nop
80001204:	00021100 	sll	v0,v0,0x4
80001208:	304200f0 	andi	v0,v0,0xf0
8000120c:	afc20020 	sw	v0,32(s8)
80001210:	afc00010 	sw	zero,16(s8)
80001214:	10000005 	b	8000122c <_fb_read+0xb8>
80001218:	00000000 	nop
8000121c:	00000000 	nop
80001220:	8fc20010 	lw	v0,16(s8)
80001224:	24420001 	addiu	v0,v0,1
80001228:	afc20010 	sw	v0,16(s8)
8000122c:	8fc30010 	lw	v1,16(s8)
80001230:	8fc20020 	lw	v0,32(s8)
80001234:	0062102b 	sltu	v0,v1,v0
80001238:	1440fff8 	bnez	v0,8000121c <_fb_read+0xa8>
8000123c:	00000000 	nop
80001240:	3c028100 	lui	v0,0x8100
80001244:	24430010 	addiu	v1,v0,16
80001248:	8fc20014 	lw	v0,20(s8)
8000124c:	00621021 	addu	v0,v1,v0
80001250:	90420000 	lbu	v0,0(v0)
80001254:	304200ff 	andi	v0,v0,0xff
80001258:	1440ffe8 	bnez	v0,800011fc <_fb_read+0x88>
8000125c:	00000000 	nop
80001260:	3c028100 	lui	v0,0x8100
80001264:	24430010 	addiu	v1,v0,16
80001268:	8fc20014 	lw	v0,20(s8)
8000126c:	00621021 	addu	v0,v1,v0
80001270:	24030001 	li	v1,1
80001274:	a0430000 	sb	v1,0(v0)
80001278:	8fc2001c 	lw	v0,28(s8)
8000127c:	24420010 	addiu	v0,v0,16
80001280:	ac400000 	sw	zero,0(v0)
80001284:	8fc30018 	lw	v1,24(s8)
80001288:	8fc2001c 	lw	v0,28(s8)
8000128c:	ac430000 	sw	v1,0(v0)
80001290:	8fc2001c 	lw	v0,28(s8)
80001294:	24420004 	addiu	v0,v0,4
80001298:	8fc30034 	lw	v1,52(s8)
8000129c:	ac430000 	sw	v1,0(v0)
800012a0:	8fc2001c 	lw	v0,28(s8)
800012a4:	24420008 	addiu	v0,v0,8
800012a8:	8fc30038 	lw	v1,56(s8)
800012ac:	ac430000 	sw	v1,0(v0)
800012b0:	00001025 	move	v0,zero
800012b4:	03c0e825 	move	sp,s8
800012b8:	8fbf002c 	lw	ra,44(sp)
800012bc:	8fbe0028 	lw	s8,40(sp)
800012c0:	27bd0030 	addiu	sp,sp,48
800012c4:	03e00008 	jr	ra
800012c8:	00000000 	nop

800012cc <_fb_completed>:
800012cc:	27bdffe0 	addiu	sp,sp,-32
800012d0:	afbf001c 	sw	ra,28(sp)
800012d4:	afbe0018 	sw	s8,24(sp)
800012d8:	03a0f025 	move	s8,sp
800012dc:	0c00013c 	jal	800004f0 <_procid>
800012e0:	00000000 	nop
800012e4:	afc20010 	sw	v0,16(s8)
800012e8:	10000002 	b	800012f4 <_fb_completed+0x28>
800012ec:	00000000 	nop
800012f0:	00000000 	nop
800012f4:	3c028100 	lui	v0,0x8100
800012f8:	24430010 	addiu	v1,v0,16
800012fc:	8fc20010 	lw	v0,16(s8)
80001300:	00621021 	addu	v0,v1,v0
80001304:	90420000 	lbu	v0,0(v0)
80001308:	304200ff 	andi	v0,v0,0xff
8000130c:	1440fff8 	bnez	v0,800012f0 <_fb_completed+0x24>
80001310:	00000000 	nop
80001314:	3c028100 	lui	v0,0x8100
80001318:	8fc30010 	lw	v1,16(s8)
8000131c:	00031880 	sll	v1,v1,0x2
80001320:	24420000 	addiu	v0,v0,0
80001324:	00621021 	addu	v0,v1,v0
80001328:	8c420000 	lw	v0,0(v0)
8000132c:	10400004 	beqz	v0,80001340 <_fb_completed+0x74>
80001330:	00000000 	nop
80001334:	24020001 	li	v0,1
80001338:	10000002 	b	80001344 <_fb_completed+0x78>
8000133c:	00000000 	nop
80001340:	00001025 	move	v0,zero
80001344:	03c0e825 	move	sp,s8
80001348:	8fbf001c 	lw	ra,28(sp)
8000134c:	8fbe0018 	lw	s8,24(sp)
80001350:	27bd0020 	addiu	sp,sp,32
80001354:	03e00008 	jr	ra
80001358:	00000000 	nop

8000135c <_putk>:
8000135c:	27bdffe0 	addiu	sp,sp,-32
80001360:	afbf001c 	sw	ra,28(sp)
80001364:	afbe0018 	sw	s8,24(sp)
80001368:	03a0f025 	move	s8,sp
8000136c:	afc40020 	sw	a0,32(s8)
80001370:	afc00010 	sw	zero,16(s8)
80001374:	8fc20020 	lw	v0,32(s8)
80001378:	afc20014 	sw	v0,20(s8)
8000137c:	10000004 	b	80001390 <_putk+0x34>
80001380:	00000000 	nop
80001384:	8fc20010 	lw	v0,16(s8)
80001388:	24420001 	addiu	v0,v0,1
8000138c:	afc20010 	sw	v0,16(s8)
80001390:	8fc20014 	lw	v0,20(s8)
80001394:	24430001 	addiu	v1,v0,1
80001398:	afc30014 	sw	v1,20(s8)
8000139c:	80420000 	lb	v0,0(v0)
800013a0:	1440fff8 	bnez	v0,80001384 <_putk+0x28>
800013a4:	00000000 	nop
800013a8:	8fc50010 	lw	a1,16(s8)
800013ac:	8fc40020 	lw	a0,32(s8)
800013b0:	0c0001c0 	jal	80000700 <_tty_write>
800013b4:	00000000 	nop
800013b8:	03c0e825 	move	sp,s8
800013bc:	8fbf001c 	lw	ra,28(sp)
800013c0:	8fbe0018 	lw	s8,24(sp)
800013c4:	27bd0020 	addiu	sp,sp,32
800013c8:	03e00008 	jr	ra
800013cc:	00000000 	nop

800013d0 <_exit>:
800013d0:	27bdffb8 	addiu	sp,sp,-72
800013d4:	afbf0044 	sw	ra,68(sp)
800013d8:	afbe0040 	sw	s8,64(sp)
800013dc:	03a0f025 	move	s8,sp
800013e0:	3c028200 	lui	v0,0x8200
800013e4:	8c490000 	lw	t1,0(v0)
800013e8:	24430000 	addiu	v1,v0,0
800013ec:	8c680004 	lw	t0,4(v1)
800013f0:	24430000 	addiu	v1,v0,0
800013f4:	8c670008 	lw	a3,8(v1)
800013f8:	24430000 	addiu	v1,v0,0
800013fc:	8c66000c 	lw	a2,12(v1)
80001400:	24430000 	addiu	v1,v0,0
80001404:	8c650010 	lw	a1,16(v1)
80001408:	24430000 	addiu	v1,v0,0
8000140c:	8c640014 	lw	a0,20(v1)
80001410:	24430000 	addiu	v1,v0,0
80001414:	8c630018 	lw	v1,24(v1)
80001418:	24420000 	addiu	v0,v0,0
8000141c:	8c42001c 	lw	v0,28(v0)
80001420:	afc90014 	sw	t1,20(s8)
80001424:	afc80018 	sw	t0,24(s8)
80001428:	afc7001c 	sw	a3,28(s8)
8000142c:	afc60020 	sw	a2,32(s8)
80001430:	afc50024 	sw	a1,36(s8)
80001434:	afc40028 	sw	a0,40(s8)
80001438:	afc3002c 	sw	v1,44(s8)
8000143c:	afc20030 	sw	v0,48(s8)
80001440:	afc00034 	sw	zero,52(s8)
80001444:	afc00038 	sw	zero,56(s8)
80001448:	0c00013c 	jal	800004f0 <_procid>
8000144c:	00000000 	nop
80001450:	afc20010 	sw	v0,16(s8)
80001454:	8fc20010 	lw	v0,16(s8)
80001458:	00021202 	srl	v0,v0,0x8
8000145c:	304200ff 	andi	v0,v0,0xff
80001460:	3042000f 	andi	v0,v0,0xf
80001464:	304200ff 	andi	v0,v0,0xff
80001468:	24420030 	addiu	v0,v0,48
8000146c:	304200ff 	andi	v0,v0,0xff
80001470:	00021600 	sll	v0,v0,0x18
80001474:	00021603 	sra	v0,v0,0x18
80001478:	a3c2002b 	sb	v0,43(s8)
8000147c:	8fc20010 	lw	v0,16(s8)
80001480:	00021102 	srl	v0,v0,0x4
80001484:	304200ff 	andi	v0,v0,0xff
80001488:	3042000f 	andi	v0,v0,0xf
8000148c:	304200ff 	andi	v0,v0,0xff
80001490:	24420030 	addiu	v0,v0,48
80001494:	304200ff 	andi	v0,v0,0xff
80001498:	00021600 	sll	v0,v0,0x18
8000149c:	00021603 	sra	v0,v0,0x18
800014a0:	a3c2002c 	sb	v0,44(s8)
800014a4:	8fc20010 	lw	v0,16(s8)
800014a8:	304200ff 	andi	v0,v0,0xff
800014ac:	3042000f 	andi	v0,v0,0xf
800014b0:	304200ff 	andi	v0,v0,0xff
800014b4:	24420030 	addiu	v0,v0,48
800014b8:	304200ff 	andi	v0,v0,0xff
800014bc:	00021600 	sll	v0,v0,0x18
800014c0:	00021603 	sra	v0,v0,0x18
800014c4:	a3c2002d 	sb	v0,45(s8)
800014c8:	27c20014 	addiu	v0,s8,20
800014cc:	00402025 	move	a0,v0
800014d0:	0c0004d7 	jal	8000135c <_putk>
800014d4:	00000000 	nop
800014d8:	00000000 	nop
800014dc:	1000fffe 	b	800014d8 <_exit+0x108>
800014e0:	00000000 	nop

800014e4 <_dcache_buf_invalidate>:
800014e4:	27bdffe8 	addiu	sp,sp,-24
800014e8:	afbe0014 	sw	s8,20(sp)
800014ec:	03a0f025 	move	s8,sp
800014f0:	afc40018 	sw	a0,24(s8)
800014f4:	afc5001c 	sw	a1,28(s8)
800014f8:	40028001 	mfc0	v0,c0_config1
800014fc:	afc20004 	sw	v0,4(s8)
80001500:	8fc20004 	lw	v0,4(s8)
80001504:	00021282 	srl	v0,v0,0xa
80001508:	30420007 	andi	v0,v0,0x7
8000150c:	afc20004 	sw	v0,4(s8)
80001510:	24030002 	li	v1,2
80001514:	8fc20004 	lw	v0,4(s8)
80001518:	00431004 	sllv	v0,v1,v0
8000151c:	afc20008 	sw	v0,8(s8)
80001520:	afc00000 	sw	zero,0(s8)
80001524:	10000009 	b	8000154c <_dcache_buf_invalidate+0x68>
80001528:	00000000 	nop
8000152c:	8fc30018 	lw	v1,24(s8)
80001530:	8fc20000 	lw	v0,0(s8)
80001534:	00621021 	addu	v0,v1,v0
80001538:	bc510000 	cache	0x11,0(v0)
8000153c:	8fc30000 	lw	v1,0(s8)
80001540:	8fc20008 	lw	v0,8(s8)
80001544:	00621021 	addu	v0,v1,v0
80001548:	afc20000 	sw	v0,0(s8)
8000154c:	8fc30000 	lw	v1,0(s8)
80001550:	8fc2001c 	lw	v0,28(s8)
80001554:	0062102b 	sltu	v0,v1,v0
80001558:	1440fff4 	bnez	v0,8000152c <_dcache_buf_invalidate+0x48>
8000155c:	00000000 	nop
80001560:	00000000 	nop
80001564:	03c0e825 	move	sp,s8
80001568:	8fbe0014 	lw	s8,20(sp)
8000156c:	27bd0018 	addiu	sp,sp,24
80001570:	03e00008 	jr	ra
80001574:	00000000 	nop

80001578 <_itoa_dec>:
80001578:	27bdfff0 	addiu	sp,sp,-16
8000157c:	afbe000c 	sw	s8,12(sp)
80001580:	03a0f025 	move	s8,sp
80001584:	afc40010 	sw	a0,16(s8)
80001588:	afc50014 	sw	a1,20(s8)
8000158c:	afc00000 	sw	zero,0(s8)
80001590:	1000002f 	b	80001650 <_itoa_dec+0xd8>
80001594:	00000000 	nop
80001598:	8fc20010 	lw	v0,16(s8)
8000159c:	14400004 	bnez	v0,800015b0 <_itoa_dec+0x38>
800015a0:	00000000 	nop
800015a4:	8fc20000 	lw	v0,0(s8)
800015a8:	14400018 	bnez	v0,8000160c <_itoa_dec+0x94>
800015ac:	00000000 	nop
800015b0:	8fc40010 	lw	a0,16(s8)
800015b4:	3c02cccc 	lui	v0,0xcccc
800015b8:	3442cccd 	ori	v0,v0,0xcccd
800015bc:	00820019 	multu	a0,v0
800015c0:	00001010 	mfhi	v0
800015c4:	000218c2 	srl	v1,v0,0x3
800015c8:	00601025 	move	v0,v1
800015cc:	00021080 	sll	v0,v0,0x2
800015d0:	00431021 	addu	v0,v0,v1
800015d4:	00021040 	sll	v0,v0,0x1
800015d8:	00821823 	subu	v1,a0,v0
800015dc:	24040009 	li	a0,9
800015e0:	8fc20000 	lw	v0,0(s8)
800015e4:	00821023 	subu	v0,a0,v0
800015e8:	8fc40014 	lw	a0,20(s8)
800015ec:	00821021 	addu	v0,a0,v0
800015f0:	3c048200 	lui	a0,0x8200
800015f4:	24840028 	addiu	a0,a0,40
800015f8:	00641821 	addu	v1,v1,a0
800015fc:	80630000 	lb	v1,0(v1)
80001600:	a0430000 	sb	v1,0(v0)
80001604:	10000008 	b	80001628 <_itoa_dec+0xb0>
80001608:	00000000 	nop
8000160c:	24030009 	li	v1,9
80001610:	8fc20000 	lw	v0,0(s8)
80001614:	00621023 	subu	v0,v1,v0
80001618:	8fc30014 	lw	v1,20(s8)
8000161c:	00621021 	addu	v0,v1,v0
80001620:	24030020 	li	v1,32
80001624:	a0430000 	sb	v1,0(v0)
80001628:	8fc30010 	lw	v1,16(s8)
8000162c:	3c02cccc 	lui	v0,0xcccc
80001630:	3442cccd 	ori	v0,v0,0xcccd
80001634:	00620019 	multu	v1,v0
80001638:	00001010 	mfhi	v0
8000163c:	000210c2 	srl	v0,v0,0x3
80001640:	afc20010 	sw	v0,16(s8)
80001644:	8fc20000 	lw	v0,0(s8)
80001648:	24420001 	addiu	v0,v0,1
8000164c:	afc20000 	sw	v0,0(s8)
80001650:	8fc20000 	lw	v0,0(s8)
80001654:	2c42000a 	sltiu	v0,v0,10
80001658:	1440ffcf 	bnez	v0,80001598 <_itoa_dec+0x20>
8000165c:	00000000 	nop
80001660:	00000000 	nop
80001664:	03c0e825 	move	sp,s8
80001668:	8fbe000c 	lw	s8,12(sp)
8000166c:	27bd0010 	addiu	sp,sp,16
80001670:	03e00008 	jr	ra
80001674:	00000000 	nop

80001678 <_itoa_hex>:
80001678:	27bdfff0 	addiu	sp,sp,-16
8000167c:	afbe000c 	sw	s8,12(sp)
80001680:	03a0f025 	move	s8,sp
80001684:	afc40010 	sw	a0,16(s8)
80001688:	afc50014 	sw	a1,20(s8)
8000168c:	afc00000 	sw	zero,0(s8)
80001690:	10000013 	b	800016e0 <_itoa_hex+0x68>
80001694:	00000000 	nop
80001698:	8fc20010 	lw	v0,16(s8)
8000169c:	3044000f 	andi	a0,v0,0xf
800016a0:	24030007 	li	v1,7
800016a4:	8fc20000 	lw	v0,0(s8)
800016a8:	00621023 	subu	v0,v1,v0
800016ac:	8fc30014 	lw	v1,20(s8)
800016b0:	00621021 	addu	v0,v1,v0
800016b4:	3c038200 	lui	v1,0x8200
800016b8:	24630034 	addiu	v1,v1,52
800016bc:	00831821 	addu	v1,a0,v1
800016c0:	80630000 	lb	v1,0(v1)
800016c4:	a0430000 	sb	v1,0(v0)
800016c8:	8fc20010 	lw	v0,16(s8)
800016cc:	00021102 	srl	v0,v0,0x4
800016d0:	afc20010 	sw	v0,16(s8)
800016d4:	8fc20000 	lw	v0,0(s8)
800016d8:	24420001 	addiu	v0,v0,1
800016dc:	afc20000 	sw	v0,0(s8)
800016e0:	8fc20000 	lw	v0,0(s8)
800016e4:	2c420008 	sltiu	v0,v0,8
800016e8:	1440ffeb 	bnez	v0,80001698 <_itoa_hex+0x20>
800016ec:	00000000 	nop
800016f0:	00000000 	nop
800016f4:	03c0e825 	move	sp,s8
800016f8:	8fbe000c 	lw	s8,12(sp)
800016fc:	27bd0010 	addiu	sp,sp,16
80001700:	03e00008 	jr	ra
80001704:	00000000 	nop

80001708 <_barrier_init>:
80001708:	27bdfff0 	addiu	sp,sp,-16
8000170c:	afbe000c 	sw	s8,12(sp)
80001710:	03a0f025 	move	s8,sp
80001714:	afc40010 	sw	a0,16(s8)
80001718:	afc50014 	sw	a1,20(s8)
8000171c:	8fc20010 	lw	v0,16(s8)
80001720:	2c420008 	sltiu	v0,v0,8
80001724:	14400004 	bnez	v0,80001738 <_barrier_init+0x30>
80001728:	00000000 	nop
8000172c:	24020001 	li	v0,1
80001730:	1000001a 	b	8000179c <_barrier_init_done+0x4>
80001734:	00000000 	nop
80001738:	8fc20010 	lw	v0,16(s8)
8000173c:	00021880 	sll	v1,v0,0x2
80001740:	3c028100 	lui	v0,0x8100
80001744:	24420024 	addiu	v0,v0,36
80001748:	00621021 	addu	v0,v1,v0
8000174c:	afc20000 	sw	v0,0(s8)
80001750:	8fc20010 	lw	v0,16(s8)
80001754:	00021880 	sll	v1,v0,0x2
80001758:	3c028100 	lui	v0,0x8100
8000175c:	24420044 	addiu	v0,v0,68
80001760:	00621021 	addu	v0,v1,v0
80001764:	afc20004 	sw	v0,4(s8)
80001768:	8fc40000 	lw	a0,0(s8)
8000176c:	8fc50004 	lw	a1,4(s8)
80001770:	8fc60014 	lw	a2,20(s8)

80001774 <_barrier_init_test>:
80001774:	c0820000 	ll	v0,0(a0)
80001778:	14400007 	bnez	v0,80001798 <_barrier_init_done>
8000177c:	00000000 	nop
80001780:	00c01825 	move	v1,a2
80001784:	e0830000 	sc	v1,0(a0)
80001788:	1060fffa 	beqz	v1,80001774 <_barrier_init_test>
8000178c:	00000000 	nop
80001790:	00c01825 	move	v1,a2
80001794:	aca30000 	sw	v1,0(a1)

80001798 <_barrier_init_done>:
80001798:	00001025 	move	v0,zero
8000179c:	03c0e825 	move	sp,s8
800017a0:	8fbe000c 	lw	s8,12(sp)
800017a4:	27bd0010 	addiu	sp,sp,16
800017a8:	03e00008 	jr	ra
800017ac:	00000000 	nop

800017b0 <_barrier_wait>:
800017b0:	27bdffe8 	addiu	sp,sp,-24
800017b4:	afbe0014 	sw	s8,20(sp)
800017b8:	03a0f025 	move	s8,sp
800017bc:	afc40018 	sw	a0,24(s8)
800017c0:	8fc20018 	lw	v0,24(s8)
800017c4:	2c420008 	sltiu	v0,v0,8
800017c8:	14400004 	bnez	v0,800017dc <_barrier_wait+0x2c>
800017cc:	00000000 	nop
800017d0:	24020001 	li	v0,1
800017d4:	10000025 	b	8000186c <_barrier_decrement+0x58>
800017d8:	00000000 	nop
800017dc:	8fc20018 	lw	v0,24(s8)
800017e0:	00021880 	sll	v1,v0,0x2
800017e4:	3c028100 	lui	v0,0x8100
800017e8:	24420044 	addiu	v0,v0,68
800017ec:	00621021 	addu	v0,v1,v0
800017f0:	afc20000 	sw	v0,0(s8)
800017f4:	3c028100 	lui	v0,0x8100
800017f8:	8fc30018 	lw	v1,24(s8)
800017fc:	00031880 	sll	v1,v1,0x2
80001800:	24420024 	addiu	v0,v0,36
80001804:	00621021 	addu	v0,v1,v0
80001808:	8c420000 	lw	v0,0(v0)
8000180c:	afc20004 	sw	v0,4(s8)
80001810:	8fc50000 	lw	a1,0(s8)

80001814 <_barrier_decrement>:
80001814:	c0a40000 	ll	a0,0(a1)
80001818:	2083ffff 	addi	v1,a0,-1
8000181c:	e0a30000 	sc	v1,0(a1)
80001820:	1060fffc 	beqz	v1,80001814 <_barrier_decrement>
80001824:	00000000 	nop
80001828:	afc40008 	sw	a0,8(s8)
8000182c:	8fc30008 	lw	v1,8(s8)
80001830:	24020001 	li	v0,1
80001834:	14620006 	bne	v1,v0,80001850 <_barrier_decrement+0x3c>
80001838:	00000000 	nop
8000183c:	8fc20000 	lw	v0,0(s8)
80001840:	8fc30004 	lw	v1,4(s8)
80001844:	ac430000 	sw	v1,0(v0)
80001848:	10000007 	b	80001868 <_barrier_decrement+0x54>
8000184c:	00000000 	nop
80001850:	00000000 	nop
80001854:	8fc20000 	lw	v0,0(s8)
80001858:	8c420000 	lw	v0,0(v0)
8000185c:	8fc30004 	lw	v1,4(s8)
80001860:	1462fffc 	bne	v1,v0,80001854 <_barrier_decrement+0x40>
80001864:	00000000 	nop
80001868:	00001025 	move	v0,zero
8000186c:	03c0e825 	move	sp,s8
80001870:	8fbe0014 	lw	s8,20(sp)
80001874:	27bd0018 	addiu	sp,sp,24
80001878:	03e00008 	jr	ra
8000187c:	00000000 	nop

80001880 <_ctx_switch>:
80001880:	27bdffd0 	addiu	sp,sp,-48
80001884:	afbf002c 	sw	ra,44(sp)
80001888:	afbe0028 	sw	s8,40(sp)
8000188c:	03a0f025 	move	s8,sp
80001890:	0c00013c 	jal	800004f0 <_procid>
80001894:	00000000 	nop
80001898:	afc20010 	sw	v0,16(s8)
8000189c:	3c028200 	lui	v0,0x8200
800018a0:	244303bc 	addiu	v1,v0,956
800018a4:	8fc20010 	lw	v0,16(s8)
800018a8:	00621021 	addu	v0,v1,v0
800018ac:	90420000 	lbu	v0,0(v0)
800018b0:	2c420002 	sltiu	v0,v0,2
800018b4:	14400030 	bnez	v0,80001978 <_ctx_switch+0xf8>
800018b8:	00000000 	nop
800018bc:	3c028200 	lui	v0,0x8200
800018c0:	244307c0 	addiu	v1,v0,1984
800018c4:	8fc20010 	lw	v0,16(s8)
800018c8:	00621021 	addu	v0,v1,v0
800018cc:	90420000 	lbu	v0,0(v0)
800018d0:	a3c20014 	sb	v0,20(s8)
800018d4:	93c30014 	lbu	v1,20(s8)
800018d8:	8fc20010 	lw	v0,16(s8)
800018dc:	00621021 	addu	v0,v1,v0
800018e0:	00021180 	sll	v0,v0,0x6
800018e4:	00021880 	sll	v1,v0,0x2
800018e8:	3c028200 	lui	v0,0x8200
800018ec:	244203c0 	addiu	v0,v0,960
800018f0:	00621021 	addu	v0,v1,v0
800018f4:	afc20018 	sw	v0,24(s8)
800018f8:	93c20014 	lbu	v0,20(s8)
800018fc:	24420001 	addiu	v0,v0,1
80001900:	3c038200 	lui	v1,0x8200
80001904:	246403bc 	addiu	a0,v1,956
80001908:	8fc30010 	lw	v1,16(s8)
8000190c:	00831821 	addu	v1,a0,v1
80001910:	90630000 	lbu	v1,0(v1)
80001914:	0043001a 	div	zero,v0,v1
80001918:	006001f4 	teq	v1,zero,0x7
8000191c:	00001010 	mfhi	v0
80001920:	a3c2001c 	sb	v0,28(s8)
80001924:	93c3001c 	lbu	v1,28(s8)
80001928:	8fc20010 	lw	v0,16(s8)
8000192c:	00621021 	addu	v0,v1,v0
80001930:	00021180 	sll	v0,v0,0x6
80001934:	00021880 	sll	v1,v0,0x2
80001938:	3c028200 	lui	v0,0x8200
8000193c:	244203c0 	addiu	v0,v0,960
80001940:	00621021 	addu	v0,v1,v0
80001944:	afc20020 	sw	v0,32(s8)
80001948:	3c028200 	lui	v0,0x8200
8000194c:	244307c0 	addiu	v1,v0,1984
80001950:	8fc20010 	lw	v0,16(s8)
80001954:	00621021 	addu	v0,v1,v0
80001958:	93c3001c 	lbu	v1,28(s8)
8000195c:	a0430000 	sb	v1,0(v0)
80001960:	8fc50020 	lw	a1,32(s8)
80001964:	8fc40018 	lw	a0,24(s8)
80001968:	0c0000b7 	jal	800002dc <_task_switch>
8000196c:	00000000 	nop
80001970:	10000002 	b	8000197c <_ctx_switch+0xfc>
80001974:	00000000 	nop
80001978:	00000000 	nop
8000197c:	03c0e825 	move	sp,s8
80001980:	8fbf002c 	lw	ra,44(sp)
80001984:	8fbe0028 	lw	s8,40(sp)
80001988:	27bd0030 	addiu	sp,sp,48
8000198c:	03e00008 	jr	ra
80001990:	00000000 	nop

80001994 <_get_epc>:
80001994:	27bdfff0 	addiu	sp,sp,-16
80001998:	afbe000c 	sw	s8,12(sp)
8000199c:	03a0f025 	move	s8,sp
800019a0:	40027000 	mfc0	v0,c0_epc
800019a4:	afc20000 	sw	v0,0(s8)
800019a8:	8fc20000 	lw	v0,0(s8)
800019ac:	03c0e825 	move	sp,s8
800019b0:	8fbe000c 	lw	s8,12(sp)
800019b4:	27bd0010 	addiu	sp,sp,16
800019b8:	03e00008 	jr	ra
800019bc:	00000000 	nop

800019c0 <_sys_ukn>:
800019c0:	27bdffe0 	addiu	sp,sp,-32
800019c4:	afbf001c 	sw	ra,28(sp)
800019c8:	afbe0018 	sw	s8,24(sp)
800019cc:	03a0f025 	move	s8,sp
800019d0:	3c028200 	lui	v0,0x8200
800019d4:	24440044 	addiu	a0,v0,68
800019d8:	0c0004d7 	jal	8000135c <_putk>
800019dc:	00000000 	nop
800019e0:	3c028200 	lui	v0,0x8200
800019e4:	24440068 	addiu	a0,v0,104
800019e8:	0c0004d7 	jal	8000135c <_putk>
800019ec:	00000000 	nop
800019f0:	3c028200 	lui	v0,0x8200
800019f4:	24420070 	addiu	v0,v0,112
800019f8:	afc20010 	sw	v0,16(s8)
800019fc:	0c000665 	jal	80001994 <_get_epc>
80001a00:	00000000 	nop
80001a04:	afc20014 	sw	v0,20(s8)
80001a08:	8fc20010 	lw	v0,16(s8)
80001a0c:	24420002 	addiu	v0,v0,2
80001a10:	00402825 	move	a1,v0
80001a14:	8fc40014 	lw	a0,20(s8)
80001a18:	0c00059e 	jal	80001678 <_itoa_hex>
80001a1c:	00000000 	nop
80001a20:	8fc40010 	lw	a0,16(s8)
80001a24:	0c0004d7 	jal	8000135c <_putk>
80001a28:	00000000 	nop
80001a2c:	0c0004f4 	jal	800013d0 <_exit>
80001a30:	00000000 	nop

80001a34 <_procnumber>:
80001a34:	27bdfff8 	addiu	sp,sp,-8
80001a38:	afbe0004 	sw	s8,4(sp)
80001a3c:	03a0f025 	move	s8,sp
80001a40:	24020004 	li	v0,4
80001a44:	03c0e825 	move	sp,s8
80001a48:	8fbe0004 	lw	s8,4(sp)
80001a4c:	27bd0008 	addiu	sp,sp,8
80001a50:	03e00008 	jr	ra
80001a54:	00000000 	nop

80001a58 <_int_demux>:
80001a58:	27bdffe0 	addiu	sp,sp,-32
80001a5c:	afbf001c 	sw	ra,28(sp)
80001a60:	afbe0018 	sw	s8,24(sp)
80001a64:	03a0f025 	move	s8,sp
80001a68:	27c20014 	addiu	v0,s8,20
80001a6c:	00402825 	move	a1,v0
80001a70:	24040004 	li	a0,4
80001a74:	0c0002c0 	jal	80000b00 <_icu_read>
80001a78:	00000000 	nop
80001a7c:	14400012 	bnez	v0,80001ac8 <_int_demux+0x70>
80001a80:	00000000 	nop
80001a84:	8fc20014 	lw	v0,20(s8)
80001a88:	28420020 	slti	v0,v0,32
80001a8c:	1040000d 	beqz	v0,80001ac4 <_int_demux+0x6c>
80001a90:	00000000 	nop
80001a94:	8fc30014 	lw	v1,20(s8)
80001a98:	3c028200 	lui	v0,0x8200
80001a9c:	00031880 	sll	v1,v1,0x2
80001aa0:	2442031c 	addiu	v0,v0,796
80001aa4:	00621021 	addu	v0,v1,v0
80001aa8:	8c420000 	lw	v0,0(v0)
80001aac:	afc20010 	sw	v0,16(s8)
80001ab0:	8fc20010 	lw	v0,16(s8)
80001ab4:	0040f809 	jalr	v0
80001ab8:	00000000 	nop
80001abc:	10000002 	b	80001ac8 <_int_demux+0x70>
80001ac0:	00000000 	nop
80001ac4:	00000000 	nop
80001ac8:	03c0e825 	move	sp,s8
80001acc:	8fbf001c 	lw	ra,28(sp)
80001ad0:	8fbe0018 	lw	s8,24(sp)
80001ad4:	27bd0020 	addiu	sp,sp,32
80001ad8:	03e00008 	jr	ra
80001adc:	00000000 	nop

80001ae0 <_isr_default>:
80001ae0:	27bdffe8 	addiu	sp,sp,-24
80001ae4:	afbf0014 	sw	ra,20(sp)
80001ae8:	afbe0010 	sw	s8,16(sp)
80001aec:	03a0f025 	move	s8,sp
80001af0:	3c028200 	lui	v0,0x8200
80001af4:	2444007c 	addiu	a0,v0,124
80001af8:	0c0004d7 	jal	8000135c <_putk>
80001afc:	00000000 	nop
80001b00:	00000000 	nop
80001b04:	03c0e825 	move	sp,s8
80001b08:	8fbf0014 	lw	ra,20(sp)
80001b0c:	8fbe0010 	lw	s8,16(sp)
80001b10:	27bd0018 	addiu	sp,sp,24
80001b14:	03e00008 	jr	ra
80001b18:	00000000 	nop

80001b1c <_isr_dma>:
80001b1c:	27bdffe0 	addiu	sp,sp,-32
80001b20:	afbf001c 	sw	ra,28(sp)
80001b24:	afbe0018 	sw	s8,24(sp)
80001b28:	03a0f025 	move	s8,sp
80001b2c:	0c00013c 	jal	800004f0 <_procid>
80001b30:	00000000 	nop
80001b34:	afc20010 	sw	v0,16(s8)
80001b38:	8fc20010 	lw	v0,16(s8)
80001b3c:	00021940 	sll	v1,v0,0x5
80001b40:	3c029300 	lui	v0,0x9300
80001b44:	24420000 	addiu	v0,v0,0
80001b48:	00621021 	addu	v0,v1,v0
80001b4c:	afc20014 	sw	v0,20(s8)
80001b50:	8fc20014 	lw	v0,20(s8)
80001b54:	8c430008 	lw	v1,8(v0)
80001b58:	3c028100 	lui	v0,0x8100
80001b5c:	8fc40010 	lw	a0,16(s8)
80001b60:	00042080 	sll	a0,a0,0x2
80001b64:	24420000 	addiu	v0,v0,0
80001b68:	00821021 	addu	v0,a0,v0
80001b6c:	ac430000 	sw	v1,0(v0)
80001b70:	3c028100 	lui	v0,0x8100
80001b74:	24430010 	addiu	v1,v0,16
80001b78:	8fc20010 	lw	v0,16(s8)
80001b7c:	00621021 	addu	v0,v1,v0
80001b80:	a0400000 	sb	zero,0(v0)
80001b84:	8fc20014 	lw	v0,20(s8)
80001b88:	2442000c 	addiu	v0,v0,12
80001b8c:	ac400000 	sw	zero,0(v0)
80001b90:	00000000 	nop
80001b94:	03c0e825 	move	sp,s8
80001b98:	8fbf001c 	lw	ra,28(sp)
80001b9c:	8fbe0018 	lw	s8,24(sp)
80001ba0:	27bd0020 	addiu	sp,sp,32
80001ba4:	03e00008 	jr	ra
80001ba8:	00000000 	nop

80001bac <_isr_ioc>:
80001bac:	27bdfff0 	addiu	sp,sp,-16
80001bb0:	afbe000c 	sw	s8,12(sp)
80001bb4:	03a0f025 	move	s8,sp
80001bb8:	3c029200 	lui	v0,0x9200
80001bbc:	24420000 	addiu	v0,v0,0
80001bc0:	afc20000 	sw	v0,0(s8)
80001bc4:	8fc20000 	lw	v0,0(s8)
80001bc8:	24420010 	addiu	v0,v0,16
80001bcc:	8c420000 	lw	v0,0(v0)
80001bd0:	304300ff 	andi	v1,v0,0xff
80001bd4:	3c028100 	lui	v0,0x8100
80001bd8:	a0430014 	sb	v1,20(v0)
80001bdc:	3c028100 	lui	v0,0x8100
80001be0:	24030001 	li	v1,1
80001be4:	a0430015 	sb	v1,21(v0)
80001be8:	00000000 	nop
80001bec:	03c0e825 	move	sp,s8
80001bf0:	8fbe000c 	lw	s8,12(sp)
80001bf4:	27bd0010 	addiu	sp,sp,16
80001bf8:	03e00008 	jr	ra
80001bfc:	00000000 	nop

80001c00 <_isr_timer>:
80001c00:	27bdffd8 	addiu	sp,sp,-40
80001c04:	afbf0024 	sw	ra,36(sp)
80001c08:	afbe0020 	sw	s8,32(sp)
80001c0c:	03a0f025 	move	s8,sp
80001c10:	0c00013c 	jal	800004f0 <_procid>
80001c14:	00000000 	nop
80001c18:	afc20010 	sw	v0,16(s8)
80001c1c:	8fc20010 	lw	v0,16(s8)
80001c20:	00021900 	sll	v1,v0,0x4
80001c24:	3c029100 	lui	v0,0x9100
80001c28:	24420000 	addiu	v0,v0,0
80001c2c:	00621021 	addu	v0,v1,v0
80001c30:	afc20014 	sw	v0,20(s8)
80001c34:	8fc20014 	lw	v0,20(s8)
80001c38:	2442000c 	addiu	v0,v0,12
80001c3c:	ac400000 	sw	zero,0(v0)
80001c40:	3c028200 	lui	v0,0x8200
80001c44:	24440094 	addiu	a0,v0,148
80001c48:	0c0004d7 	jal	8000135c <_putk>
80001c4c:	00000000 	nop
80001c50:	3c028200 	lui	v0,0x8200
80001c54:	244200c0 	addiu	v0,v0,192
80001c58:	afc20018 	sw	v0,24(s8)
80001c5c:	0c000148 	jal	80000520 <_proctime>
80001c60:	00000000 	nop
80001c64:	afc2001c 	sw	v0,28(s8)
80001c68:	8fc2001c 	lw	v0,28(s8)
80001c6c:	8fc50018 	lw	a1,24(s8)
80001c70:	00402025 	move	a0,v0
80001c74:	0c00055e 	jal	80001578 <_itoa_dec>
80001c78:	00000000 	nop
80001c7c:	8fc40018 	lw	a0,24(s8)
80001c80:	0c0004d7 	jal	8000135c <_putk>
80001c84:	00000000 	nop
80001c88:	3c028200 	lui	v0,0x8200
80001c8c:	244400cc 	addiu	a0,v0,204
80001c90:	0c0004d7 	jal	8000135c <_putk>
80001c94:	00000000 	nop
80001c98:	00000000 	nop
80001c9c:	03c0e825 	move	sp,s8
80001ca0:	8fbf0024 	lw	ra,36(sp)
80001ca4:	8fbe0020 	lw	s8,32(sp)
80001ca8:	27bd0028 	addiu	sp,sp,40
80001cac:	03e00008 	jr	ra
80001cb0:	00000000 	nop

80001cb4 <_isr_tty_get_indexed>:
80001cb4:	27bdffd8 	addiu	sp,sp,-40
80001cb8:	afbf0024 	sw	ra,36(sp)
80001cbc:	afbe0020 	sw	s8,32(sp)
80001cc0:	03a0f025 	move	s8,sp
80001cc4:	afc40028 	sw	a0,40(s8)
80001cc8:	0c00013c 	jal	800004f0 <_procid>
80001ccc:	00000000 	nop
80001cd0:	afc20010 	sw	v0,16(s8)
80001cd4:	8fc30010 	lw	v1,16(s8)
80001cd8:	8fc20028 	lw	v0,40(s8)
80001cdc:	00621021 	addu	v0,v1,v0
80001ce0:	00021900 	sll	v1,v0,0x4
80001ce4:	3c029000 	lui	v0,0x9000
80001ce8:	24420000 	addiu	v0,v0,0
80001cec:	00621021 	addu	v0,v1,v0
80001cf0:	afc20014 	sw	v0,20(s8)
80001cf4:	0c00013c 	jal	800004f0 <_procid>
80001cf8:	00000000 	nop
80001cfc:	00401825 	move	v1,v0
80001d00:	8fc20028 	lw	v0,40(s8)
80001d04:	00431021 	addu	v0,v0,v1
80001d08:	afc20018 	sw	v0,24(s8)
80001d0c:	8fc20014 	lw	v0,20(s8)
80001d10:	24420008 	addiu	v0,v0,8
80001d14:	8c420000 	lw	v0,0(v0)
80001d18:	304300ff 	andi	v1,v0,0xff
80001d1c:	3c028100 	lui	v0,0x8100
80001d20:	2444001c 	addiu	a0,v0,28
80001d24:	8fc20018 	lw	v0,24(s8)
80001d28:	00821021 	addu	v0,a0,v0
80001d2c:	a0430000 	sb	v1,0(v0)
80001d30:	3c028100 	lui	v0,0x8100
80001d34:	24430020 	addiu	v1,v0,32
80001d38:	8fc20018 	lw	v0,24(s8)
80001d3c:	00621021 	addu	v0,v1,v0
80001d40:	24030001 	li	v1,1
80001d44:	a0430000 	sb	v1,0(v0)
80001d48:	00000000 	nop
80001d4c:	03c0e825 	move	sp,s8
80001d50:	8fbf0024 	lw	ra,36(sp)
80001d54:	8fbe0020 	lw	s8,32(sp)
80001d58:	27bd0028 	addiu	sp,sp,40
80001d5c:	03e00008 	jr	ra
80001d60:	00000000 	nop

80001d64 <_isr_tty_get>:
80001d64:	27bdffe8 	addiu	sp,sp,-24
80001d68:	afbf0014 	sw	ra,20(sp)
80001d6c:	afbe0010 	sw	s8,16(sp)
80001d70:	03a0f025 	move	s8,sp
80001d74:	00002025 	move	a0,zero
80001d78:	0c00072d 	jal	80001cb4 <_isr_tty_get_indexed>
80001d7c:	00000000 	nop
80001d80:	00000000 	nop
80001d84:	03c0e825 	move	sp,s8
80001d88:	8fbf0014 	lw	ra,20(sp)
80001d8c:	8fbe0010 	lw	s8,16(sp)
80001d90:	27bd0018 	addiu	sp,sp,24
80001d94:	03e00008 	jr	ra
80001d98:	00000000 	nop

80001d9c <_isr_tty_get_task0>:
80001d9c:	27bdffe8 	addiu	sp,sp,-24
80001da0:	afbf0014 	sw	ra,20(sp)
80001da4:	afbe0010 	sw	s8,16(sp)
80001da8:	03a0f025 	move	s8,sp
80001dac:	00002025 	move	a0,zero
80001db0:	0c00072d 	jal	80001cb4 <_isr_tty_get_indexed>
80001db4:	00000000 	nop
80001db8:	00000000 	nop
80001dbc:	03c0e825 	move	sp,s8
80001dc0:	8fbf0014 	lw	ra,20(sp)
80001dc4:	8fbe0010 	lw	s8,16(sp)
80001dc8:	27bd0018 	addiu	sp,sp,24
80001dcc:	03e00008 	jr	ra
80001dd0:	00000000 	nop

80001dd4 <_isr_tty_get_task1>:
80001dd4:	27bdffe8 	addiu	sp,sp,-24
80001dd8:	afbf0014 	sw	ra,20(sp)
80001ddc:	afbe0010 	sw	s8,16(sp)
80001de0:	03a0f025 	move	s8,sp
80001de4:	24040001 	li	a0,1
80001de8:	0c00072d 	jal	80001cb4 <_isr_tty_get_indexed>
80001dec:	00000000 	nop
80001df0:	00000000 	nop
80001df4:	03c0e825 	move	sp,s8
80001df8:	8fbf0014 	lw	ra,20(sp)
80001dfc:	8fbe0010 	lw	s8,16(sp)
80001e00:	27bd0018 	addiu	sp,sp,24
80001e04:	03e00008 	jr	ra
80001e08:	00000000 	nop

80001e0c <_isr_tty_get_task2>:
80001e0c:	27bdffe8 	addiu	sp,sp,-24
80001e10:	afbf0014 	sw	ra,20(sp)
80001e14:	afbe0010 	sw	s8,16(sp)
80001e18:	03a0f025 	move	s8,sp
80001e1c:	24040002 	li	a0,2
80001e20:	0c00072d 	jal	80001cb4 <_isr_tty_get_indexed>
80001e24:	00000000 	nop
80001e28:	00000000 	nop
80001e2c:	03c0e825 	move	sp,s8
80001e30:	8fbf0014 	lw	ra,20(sp)
80001e34:	8fbe0010 	lw	s8,16(sp)
80001e38:	27bd0018 	addiu	sp,sp,24
80001e3c:	03e00008 	jr	ra
80001e40:	00000000 	nop

80001e44 <_isr_tty_get_task3>:
80001e44:	27bdffe8 	addiu	sp,sp,-24
80001e48:	afbf0014 	sw	ra,20(sp)
80001e4c:	afbe0010 	sw	s8,16(sp)
80001e50:	03a0f025 	move	s8,sp
80001e54:	24040003 	li	a0,3
80001e58:	0c00072d 	jal	80001cb4 <_isr_tty_get_indexed>
80001e5c:	00000000 	nop
80001e60:	00000000 	nop
80001e64:	03c0e825 	move	sp,s8
80001e68:	8fbf0014 	lw	ra,20(sp)
80001e6c:	8fbe0010 	lw	s8,16(sp)
80001e70:	27bd0018 	addiu	sp,sp,24
80001e74:	03e00008 	jr	ra
80001e78:	00000000 	nop

80001e7c <_isr_switch>:
80001e7c:	27bdffe0 	addiu	sp,sp,-32
80001e80:	afbf001c 	sw	ra,28(sp)
80001e84:	afbe0018 	sw	s8,24(sp)
80001e88:	03a0f025 	move	s8,sp
80001e8c:	0c00013c 	jal	800004f0 <_procid>
80001e90:	00000000 	nop
80001e94:	afc20010 	sw	v0,16(s8)
80001e98:	8fc20010 	lw	v0,16(s8)
80001e9c:	00021900 	sll	v1,v0,0x4
80001ea0:	3c029100 	lui	v0,0x9100
80001ea4:	24420000 	addiu	v0,v0,0
80001ea8:	00621021 	addu	v0,v1,v0
80001eac:	afc20014 	sw	v0,20(s8)
80001eb0:	8fc20014 	lw	v0,20(s8)
80001eb4:	2442000c 	addiu	v0,v0,12
80001eb8:	ac400000 	sw	zero,0(v0)
80001ebc:	0c000620 	jal	80001880 <_ctx_switch>
80001ec0:	00000000 	nop
80001ec4:	00000000 	nop
80001ec8:	03c0e825 	move	sp,s8
80001ecc:	8fbf001c 	lw	ra,28(sp)
80001ed0:	8fbe0018 	lw	s8,24(sp)
80001ed4:	27bd0020 	addiu	sp,sp,32
80001ed8:	03e00008 	jr	ra
80001edc:	00000000 	nop

80001ee0 <_get_epc>:
80001ee0:	27bdfff0 	addiu	sp,sp,-16
80001ee4:	afbe000c 	sw	s8,12(sp)
80001ee8:	03a0f025 	move	s8,sp
80001eec:	40027000 	mfc0	v0,c0_epc
80001ef0:	afc20000 	sw	v0,0(s8)
80001ef4:	8fc20000 	lw	v0,0(s8)
80001ef8:	03c0e825 	move	sp,s8
80001efc:	8fbe000c 	lw	s8,12(sp)
80001f00:	27bd0010 	addiu	sp,sp,16
80001f04:	03e00008 	jr	ra
80001f08:	00000000 	nop

80001f0c <_get_bar>:
80001f0c:	27bdfff0 	addiu	sp,sp,-16
80001f10:	afbe000c 	sw	s8,12(sp)
80001f14:	03a0f025 	move	s8,sp
80001f18:	40024000 	mfc0	v0,c0_badvaddr
80001f1c:	afc20000 	sw	v0,0(s8)
80001f20:	8fc20000 	lw	v0,0(s8)
80001f24:	03c0e825 	move	sp,s8
80001f28:	8fbe000c 	lw	s8,12(sp)
80001f2c:	27bd0010 	addiu	sp,sp,16
80001f30:	03e00008 	jr	ra
80001f34:	00000000 	nop

80001f38 <_get_cause>:
80001f38:	27bdfff0 	addiu	sp,sp,-16
80001f3c:	afbe000c 	sw	s8,12(sp)
80001f40:	03a0f025 	move	s8,sp
80001f44:	40026800 	mfc0	v0,c0_cause
80001f48:	afc20000 	sw	v0,0(s8)
80001f4c:	8fc20000 	lw	v0,0(s8)
80001f50:	03c0e825 	move	sp,s8
80001f54:	8fbe000c 	lw	s8,12(sp)
80001f58:	27bd0010 	addiu	sp,sp,16
80001f5c:	03e00008 	jr	ra
80001f60:	00000000 	nop

80001f64 <_cause>:
80001f64:	27bdffd8 	addiu	sp,sp,-40
80001f68:	afbf0024 	sw	ra,36(sp)
80001f6c:	afbe0020 	sw	s8,32(sp)
80001f70:	03a0f025 	move	s8,sp
80001f74:	afc40028 	sw	a0,40(s8)
80001f78:	3c028200 	lui	v0,0x8200
80001f7c:	24420274 	addiu	v0,v0,628
80001f80:	afc20010 	sw	v0,16(s8)
80001f84:	3c028200 	lui	v0,0x8200
80001f88:	8fc30028 	lw	v1,40(s8)
80001f8c:	00031880 	sll	v1,v1,0x2
80001f90:	2442039c 	addiu	v0,v0,924
80001f94:	00621021 	addu	v0,v1,v0
80001f98:	8c420000 	lw	v0,0(v0)
80001f9c:	00402025 	move	a0,v0
80001fa0:	0c0004d7 	jal	8000135c <_putk>
80001fa4:	00000000 	nop
80001fa8:	3c028200 	lui	v0,0x8200
80001fac:	24440280 	addiu	a0,v0,640
80001fb0:	0c0004d7 	jal	8000135c <_putk>
80001fb4:	00000000 	nop
80001fb8:	0c0007b8 	jal	80001ee0 <_get_epc>
80001fbc:	00000000 	nop
80001fc0:	afc20014 	sw	v0,20(s8)
80001fc4:	8fc20010 	lw	v0,16(s8)
80001fc8:	24420002 	addiu	v0,v0,2
80001fcc:	00402825 	move	a1,v0
80001fd0:	8fc40014 	lw	a0,20(s8)
80001fd4:	0c00059e 	jal	80001678 <_itoa_hex>
80001fd8:	00000000 	nop
80001fdc:	8fc40010 	lw	a0,16(s8)
80001fe0:	0c0004d7 	jal	8000135c <_putk>
80001fe4:	00000000 	nop
80001fe8:	3c028200 	lui	v0,0x8200
80001fec:	24440288 	addiu	a0,v0,648
80001ff0:	0c0004d7 	jal	8000135c <_putk>
80001ff4:	00000000 	nop
80001ff8:	0c0007c3 	jal	80001f0c <_get_bar>
80001ffc:	00000000 	nop
80002000:	afc20018 	sw	v0,24(s8)
80002004:	8fc20010 	lw	v0,16(s8)
80002008:	24420002 	addiu	v0,v0,2
8000200c:	00402825 	move	a1,v0
80002010:	8fc40018 	lw	a0,24(s8)
80002014:	0c00059e 	jal	80001678 <_itoa_hex>
80002018:	00000000 	nop
8000201c:	8fc40010 	lw	a0,16(s8)
80002020:	0c0004d7 	jal	8000135c <_putk>
80002024:	00000000 	nop
80002028:	3c028200 	lui	v0,0x8200
8000202c:	24440290 	addiu	a0,v0,656
80002030:	0c0004d7 	jal	8000135c <_putk>
80002034:	00000000 	nop
80002038:	0c0007ce 	jal	80001f38 <_get_cause>
8000203c:	00000000 	nop
80002040:	afc2001c 	sw	v0,28(s8)
80002044:	8fc20010 	lw	v0,16(s8)
80002048:	24420002 	addiu	v0,v0,2
8000204c:	00402825 	move	a1,v0
80002050:	8fc4001c 	lw	a0,28(s8)
80002054:	0c00059e 	jal	80001678 <_itoa_hex>
80002058:	00000000 	nop
8000205c:	8fc40010 	lw	a0,16(s8)
80002060:	0c0004d7 	jal	8000135c <_putk>
80002064:	00000000 	nop
80002068:	0c0004f4 	jal	800013d0 <_exit>
8000206c:	00000000 	nop

80002070 <_cause_ukn>:
80002070:	27bdffe8 	addiu	sp,sp,-24
80002074:	afbf0014 	sw	ra,20(sp)
80002078:	afbe0010 	sw	s8,16(sp)
8000207c:	03a0f025 	move	s8,sp
80002080:	00002025 	move	a0,zero
80002084:	0c0007d9 	jal	80001f64 <_cause>
80002088:	00000000 	nop
8000208c:	00000000 	nop
80002090:	03c0e825 	move	sp,s8
80002094:	8fbf0014 	lw	ra,20(sp)
80002098:	8fbe0010 	lw	s8,16(sp)
8000209c:	27bd0018 	addiu	sp,sp,24
800020a0:	03e00008 	jr	ra
800020a4:	00000000 	nop

800020a8 <_cause_adel>:
800020a8:	27bdffe8 	addiu	sp,sp,-24
800020ac:	afbf0014 	sw	ra,20(sp)
800020b0:	afbe0010 	sw	s8,16(sp)
800020b4:	03a0f025 	move	s8,sp
800020b8:	24040001 	li	a0,1
800020bc:	0c0007d9 	jal	80001f64 <_cause>
800020c0:	00000000 	nop
800020c4:	00000000 	nop
800020c8:	03c0e825 	move	sp,s8
800020cc:	8fbf0014 	lw	ra,20(sp)
800020d0:	8fbe0010 	lw	s8,16(sp)
800020d4:	27bd0018 	addiu	sp,sp,24
800020d8:	03e00008 	jr	ra
800020dc:	00000000 	nop

800020e0 <_cause_ades>:
800020e0:	27bdffe8 	addiu	sp,sp,-24
800020e4:	afbf0014 	sw	ra,20(sp)
800020e8:	afbe0010 	sw	s8,16(sp)
800020ec:	03a0f025 	move	s8,sp
800020f0:	24040002 	li	a0,2
800020f4:	0c0007d9 	jal	80001f64 <_cause>
800020f8:	00000000 	nop
800020fc:	00000000 	nop
80002100:	03c0e825 	move	sp,s8
80002104:	8fbf0014 	lw	ra,20(sp)
80002108:	8fbe0010 	lw	s8,16(sp)
8000210c:	27bd0018 	addiu	sp,sp,24
80002110:	03e00008 	jr	ra
80002114:	00000000 	nop

80002118 <_cause_ibe>:
80002118:	27bdffe8 	addiu	sp,sp,-24
8000211c:	afbf0014 	sw	ra,20(sp)
80002120:	afbe0010 	sw	s8,16(sp)
80002124:	03a0f025 	move	s8,sp
80002128:	24040003 	li	a0,3
8000212c:	0c0007d9 	jal	80001f64 <_cause>
80002130:	00000000 	nop
80002134:	00000000 	nop
80002138:	03c0e825 	move	sp,s8
8000213c:	8fbf0014 	lw	ra,20(sp)
80002140:	8fbe0010 	lw	s8,16(sp)
80002144:	27bd0018 	addiu	sp,sp,24
80002148:	03e00008 	jr	ra
8000214c:	00000000 	nop

80002150 <_cause_dbe>:
80002150:	27bdffe8 	addiu	sp,sp,-24
80002154:	afbf0014 	sw	ra,20(sp)
80002158:	afbe0010 	sw	s8,16(sp)
8000215c:	03a0f025 	move	s8,sp
80002160:	24040004 	li	a0,4
80002164:	0c0007d9 	jal	80001f64 <_cause>
80002168:	00000000 	nop
8000216c:	00000000 	nop
80002170:	03c0e825 	move	sp,s8
80002174:	8fbf0014 	lw	ra,20(sp)
80002178:	8fbe0010 	lw	s8,16(sp)
8000217c:	27bd0018 	addiu	sp,sp,24
80002180:	03e00008 	jr	ra
80002184:	00000000 	nop

80002188 <_cause_bp>:
80002188:	27bdffe8 	addiu	sp,sp,-24
8000218c:	afbf0014 	sw	ra,20(sp)
80002190:	afbe0010 	sw	s8,16(sp)
80002194:	03a0f025 	move	s8,sp
80002198:	24040005 	li	a0,5
8000219c:	0c0007d9 	jal	80001f64 <_cause>
800021a0:	00000000 	nop
800021a4:	00000000 	nop
800021a8:	03c0e825 	move	sp,s8
800021ac:	8fbf0014 	lw	ra,20(sp)
800021b0:	8fbe0010 	lw	s8,16(sp)
800021b4:	27bd0018 	addiu	sp,sp,24
800021b8:	03e00008 	jr	ra
800021bc:	00000000 	nop

800021c0 <_cause_ri>:
800021c0:	27bdffe8 	addiu	sp,sp,-24
800021c4:	afbf0014 	sw	ra,20(sp)
800021c8:	afbe0010 	sw	s8,16(sp)
800021cc:	03a0f025 	move	s8,sp
800021d0:	24040006 	li	a0,6
800021d4:	0c0007d9 	jal	80001f64 <_cause>
800021d8:	00000000 	nop
800021dc:	00000000 	nop
800021e0:	03c0e825 	move	sp,s8
800021e4:	8fbf0014 	lw	ra,20(sp)
800021e8:	8fbe0010 	lw	s8,16(sp)
800021ec:	27bd0018 	addiu	sp,sp,24
800021f0:	03e00008 	jr	ra
800021f4:	00000000 	nop

800021f8 <_cause_cpu>:
800021f8:	27bdffe8 	addiu	sp,sp,-24
800021fc:	afbf0014 	sw	ra,20(sp)
80002200:	afbe0010 	sw	s8,16(sp)
80002204:	03a0f025 	move	s8,sp
80002208:	24040007 	li	a0,7
8000220c:	0c0007d9 	jal	80001f64 <_cause>
80002210:	00000000 	nop
80002214:	00000000 	nop
80002218:	03c0e825 	move	sp,s8
8000221c:	8fbf0014 	lw	ra,20(sp)
80002220:	8fbe0010 	lw	s8,16(sp)
80002224:	27bd0018 	addiu	sp,sp,24
80002228:	03e00008 	jr	ra
8000222c:	00000000 	nop

80002230 <_cause_ovf>:
80002230:	27bdffe8 	addiu	sp,sp,-24
80002234:	afbf0014 	sw	ra,20(sp)
80002238:	afbe0010 	sw	s8,16(sp)
8000223c:	03a0f025 	move	s8,sp
80002240:	24040008 	li	a0,8
80002244:	0c0007d9 	jal	80001f64 <_cause>
80002248:	00000000 	nop
8000224c:	00000000 	nop
80002250:	03c0e825 	move	sp,s8
80002254:	8fbf0014 	lw	ra,20(sp)
80002258:	8fbe0010 	lw	s8,16(sp)
8000225c:	27bd0018 	addiu	sp,sp,24
80002260:	03e00008 	jr	ra
80002264:	00000000 	nop

Disassembly of section .MIPS.abiflags:

80002268 <.MIPS.abiflags>:
80002268:	01200000 	0x1200000
8000226c:	01000101 	0x1000101
	...
80002278:	00000001 	movf	zero,zero,$fcc0
8000227c:	00000000 	nop

Disassembly of section seg_kdata:

82000000 <dectab.1094-0x28>:
82000000:	21210a0a 	addi	at,t1,2570
82000004:	78452021 	0x78452021
82000008:	50207469 	beqzl	at,8201d1b0 <_current_task_array+0x1c9f0>
8200000c:	65636f72 	0x65636f72
82000010:	726f7373 	0x726f7373
82000014:	5f783020 	0x5f783020
82000018:	21205f5f 	addi	zero,t1,24415
8200001c:	000a2121 	0xa2121
	...

82000028 <dectab.1094>:
82000028:	33323130 	andi	s2,t9,0x3130
8200002c:	37363534 	ori	s6,t9,0x3534
82000030:	00003938 	0x3938

82000034 <hexatab.1103>:
82000034:	33323130 	andi	s2,t9,0x3130
82000038:	37363534 	ori	s6,t9,0x3534
8200003c:	42413938 	c0	0x413938
82000040:	00004443 	sra	t0,zero,0x11
82000044:	21210a0a 	addi	at,t1,2570
82000048:	6e552021 	0x6e552021
8200004c:	69666564 	0x69666564
82000050:	2064656e 	addi	a0,v1,25966
82000054:	74737953 	jalx	81cde54c <_barrier_count+0xcde508>
82000058:	43206d65 	c0	0x1206d65
8200005c:	206c6c61 	addi	t4,v1,27745
82000060:	0a212121 	j	88848484 <_current_task_array+0x6847cc4>
82000064:	00000000 	nop
82000068:	4350450a 	c0	0x150450a
8200006c:	00203d20 	0x203d20
82000070:	30307830 	andi	s0,at,0x7830
82000074:	30303030 	andi	s0,at,0x3030
82000078:	00003030 	tge	zero,zero,0xc0
8200007c:	21210a0a 	addi	at,t1,2570
82000080:	65442021 	0x65442021
82000084:	6c756166 	0x6c756166
82000088:	53492074 	beql	k0,t1,8200825c <_current_task_array+0x7a9c>
8200008c:	21212052 	addi	at,t1,8274
82000090:	00000a21 	0xa21
82000094:	21210a0a 	addi	at,t1,2570
82000098:	6e492021 	0x6e492021
8200009c:	72726574 	0x72726574
820000a0:	20747075 	addi	s4,v1,28789
820000a4:	656d6974 	0x656d6974
820000a8:	65722072 	0x65722072
820000ac:	76696563 	jalx	89a5958c <_current_task_array+0x7a58dcc>
820000b0:	61206465 	0x61206465
820000b4:	79632074 	0x79632074
820000b8:	3a656c63 	xori	a1,s3,0x6c63
820000bc:	00000020 	add	zero,zero,zero
820000c0:	20202020 	addi	zero,at,8224
820000c4:	20202020 	addi	zero,at,8224
820000c8:	00002020 	add	a0,zero,zero
820000cc:	00000a0a 	0xa0a

820000d0 <_cause_vector>:
820000d0:	80000200 	lb	zero,512(zero)
820000d4:	80002070 	lb	zero,8304(zero)
820000d8:	80002070 	lb	zero,8304(zero)
820000dc:	80002070 	lb	zero,8304(zero)
820000e0:	800020a8 	lb	zero,8360(zero)
820000e4:	800020e0 	lb	zero,8416(zero)
820000e8:	80002118 	lb	zero,8472(zero)
820000ec:	80002150 	lb	zero,8528(zero)
820000f0:	800001a0 	lb	zero,416(zero)
820000f4:	80002188 	lb	zero,8584(zero)
820000f8:	800021c0 	lb	zero,8640(zero)
820000fc:	800021f8 	lb	zero,8696(zero)
82000100:	80002230 	lb	zero,8752(zero)
82000104:	80002070 	lb	zero,8304(zero)
82000108:	80002070 	lb	zero,8304(zero)
8200010c:	80002070 	lb	zero,8304(zero)
82000110:	78450a0a 	0x78450a0a
82000114:	74706563 	jalx	81c1958c <_barrier_count+0xc19548>
82000118:	206e6f69 	addi	t6,v1,28521
8200011c:	7473203a 	jalx	81cc80e8 <_barrier_count+0xcc80a4>
82000120:	676e6172 	0x676e6172
82000124:	6e752065 	0x6e752065
82000128:	776f6e6b 	jalx	8dbdb9ac <_current_task_array+0xbbdb1ec>
8200012c:	6163206e 	0x6163206e
82000130:	0a657375 	j	8995cdd4 <_current_task_array+0x795c614>
82000134:	00000000 	nop
82000138:	78450a0a 	0x78450a0a
8200013c:	74706563 	jalx	81c1958c <_barrier_count+0xc19548>
82000140:	206e6f69 	addi	t6,v1,28521
82000144:	6c69203a 	0x6c69203a
82000148:	6167656c 	0x6167656c
8200014c:	6572206c 	0x6572206c
82000150:	61206461 	0x61206461
82000154:	65726464 	0x65726464
82000158:	0a207373 	j	8881cdcc <_current_task_array+0x681c60c>
8200015c:	00000000 	nop
82000160:	78450a0a 	0x78450a0a
82000164:	74706563 	jalx	81c1958c <_barrier_count+0xc19548>
82000168:	206e6f69 	addi	t6,v1,28521
8200016c:	6c69203a 	0x6c69203a
82000170:	6167656c 	0x6167656c
82000174:	7277206c 	0x7277206c
82000178:	20657469 	addi	a1,v1,29801
8200017c:	72646461 	0x72646461
82000180:	0a737365 	j	89cdcd94 <_current_task_array+0x7cdc5d4>
82000184:	00000000 	nop
82000188:	78450a0a 	0x78450a0a
8200018c:	74706563 	jalx	81c1958c <_barrier_count+0xc19548>
82000190:	206e6f69 	addi	t6,v1,28521
82000194:	6e69203a 	0x6e69203a
82000198:	62207473 	0x62207473
8200019c:	65207375 	0x65207375
820001a0:	726f7272 	0x726f7272
820001a4:	20202020 	addi	zero,at,8224
820001a8:	0a202020 	j	88808080 <_current_task_array+0x68078c0>
820001ac:	00000000 	nop
820001b0:	78450a0a 	0x78450a0a
820001b4:	74706563 	jalx	81c1958c <_barrier_count+0xc19548>
820001b8:	206e6f69 	addi	t6,v1,28521
820001bc:	6164203a 	0x6164203a
820001c0:	62206174 	0x62206174
820001c4:	65207375 	0x65207375
820001c8:	726f7272 	0x726f7272
820001cc:	20202020 	addi	zero,at,8224
820001d0:	0a202020 	j	88808080 <_current_task_array+0x68078c0>
820001d4:	00000000 	nop
820001d8:	78450a0a 	0x78450a0a
820001dc:	74706563 	jalx	81c1958c <_barrier_count+0xc19548>
820001e0:	206e6f69 	addi	t6,v1,28521
820001e4:	7262203a 	0x7262203a
820001e8:	706b6165 	0x706b6165
820001ec:	746e696f 	jalx	81b9a5bc <_barrier_count+0xb9a578>
820001f0:	20202020 	addi	zero,at,8224
820001f4:	20202020 	addi	zero,at,8224
820001f8:	0a202020 	j	88808080 <_current_task_array+0x68078c0>
820001fc:	00000000 	nop
82000200:	78450a0a 	0x78450a0a
82000204:	74706563 	jalx	81c1958c <_barrier_count+0xc19548>
82000208:	206e6f69 	addi	t6,v1,28521
8200020c:	6572203a 	0x6572203a
82000210:	76726573 	jalx	89c995cc <_current_task_array+0x7c98e0c>
82000214:	69206465 	0x69206465
82000218:	7274736e 	0x7274736e
8200021c:	69746375 	0x69746375
82000220:	0a206e6f 	j	8881b9bc <_current_task_array+0x681b1fc>
82000224:	00000000 	nop
82000228:	78450a0a 	0x78450a0a
8200022c:	74706563 	jalx	81c1958c <_barrier_count+0xc19548>
82000230:	206e6f69 	addi	t6,v1,28521
82000234:	6c69203a 	0x6c69203a
82000238:	6167656c 	0x6167656c
8200023c:	6f63206c 	0x6f63206c
82000240:	636f7270 	0x636f7270
82000244:	63636120 	0x63636120
82000248:	0a737365 	j	89cdcd94 <_current_task_array+0x7cdc5d4>
8200024c:	78450a0a 	0x78450a0a
82000250:	74706563 	jalx	81c1958c <_barrier_count+0xc19548>
82000254:	206e6f69 	addi	t6,v1,28521
82000258:	7261203a 	0x7261203a
8200025c:	6d687469 	0x6d687469
82000260:	63697465 	0x63697465
82000264:	65766f20 	0x65766f20
82000268:	6f6c6672 	0x6f6c6672
8200026c:	0a202077 	j	888081dc <_current_task_array+0x6807a1c>
82000270:	00000000 	nop
82000274:	30307830 	andi	s0,at,0x7830
82000278:	30303030 	andi	s0,at,0x3030
8200027c:	00003030 	tge	zero,zero,0xc0
82000280:	4350450a 	c0	0x150450a
82000284:	00203d20 	0x203d20
82000288:	5241420a 	beql	s2,at,82010ab4 <_current_task_array+0x102f4>
8200028c:	00203d20 	0x203d20
82000290:	5541430a 	bnel	t2,at,82010ebc <_current_task_array+0x106fc>
82000294:	3d204553 	0x3d204553
82000298:	00000020 	add	zero,zero,zero

8200029c <_syscall_vector>:
8200029c:	800004f0 	lb	zero,1264(zero)
820002a0:	80000520 	lb	zero,1312(zero)
820002a4:	80000700 	lb	zero,1792(zero)
820002a8:	80000960 	lb	zero,2400(zero)
820002ac:	8000054c 	lb	zero,1356(zero)
820002b0:	800005d8 	lb	zero,1496(zero)
820002b4:	80000b90 	lb	zero,2960(zero)
820002b8:	80000bfc 	lb	zero,3068(zero)
820002bc:	800019c0 	lb	zero,6592(zero)
820002c0:	800019c0 	lb	zero,6592(zero)
820002c4:	80000840 	lb	zero,2112(zero)
820002c8:	800019c0 	lb	zero,6592(zero)
820002cc:	800019c0 	lb	zero,6592(zero)
820002d0:	80001880 	lb	zero,6272(zero)
820002d4:	800013d0 	lb	zero,5072(zero)
820002d8:	80001a34 	lb	zero,6708(zero)
820002dc:	80000f04 	lb	zero,3844(zero)
820002e0:	80000f90 	lb	zero,3984(zero)
820002e4:	8000101c 	lb	zero,4124(zero)
820002e8:	80001174 	lb	zero,4468(zero)
820002ec:	800012cc 	lb	zero,4812(zero)
820002f0:	80000cbc 	lb	zero,3260(zero)
820002f4:	80000d94 	lb	zero,3476(zero)
820002f8:	80000e6c 	lb	zero,3692(zero)
820002fc:	80001708 	lb	zero,5896(zero)
82000300:	800017b0 	lb	zero,6064(zero)
82000304:	800019c0 	lb	zero,6592(zero)
82000308:	800019c0 	lb	zero,6592(zero)
8200030c:	800019c0 	lb	zero,6592(zero)
82000310:	800019c0 	lb	zero,6592(zero)
82000314:	800019c0 	lb	zero,6592(zero)
82000318:	800019c0 	lb	zero,6592(zero)

8200031c <_interrupt_vector>:
8200031c:	80001ae0 	lb	zero,6880(zero)
82000320:	80001ae0 	lb	zero,6880(zero)
82000324:	80001ae0 	lb	zero,6880(zero)
82000328:	80001ae0 	lb	zero,6880(zero)
8200032c:	80001ae0 	lb	zero,6880(zero)
82000330:	80001ae0 	lb	zero,6880(zero)
82000334:	80001ae0 	lb	zero,6880(zero)
82000338:	80001ae0 	lb	zero,6880(zero)
8200033c:	80001ae0 	lb	zero,6880(zero)
82000340:	80001ae0 	lb	zero,6880(zero)
82000344:	80001ae0 	lb	zero,6880(zero)
82000348:	80001ae0 	lb	zero,6880(zero)
8200034c:	80001ae0 	lb	zero,6880(zero)
82000350:	80001ae0 	lb	zero,6880(zero)
82000354:	80001ae0 	lb	zero,6880(zero)
82000358:	80001ae0 	lb	zero,6880(zero)
8200035c:	80001ae0 	lb	zero,6880(zero)
82000360:	80001ae0 	lb	zero,6880(zero)
82000364:	80001ae0 	lb	zero,6880(zero)
82000368:	80001ae0 	lb	zero,6880(zero)
8200036c:	80001ae0 	lb	zero,6880(zero)
82000370:	80001ae0 	lb	zero,6880(zero)
82000374:	80001ae0 	lb	zero,6880(zero)
82000378:	80001ae0 	lb	zero,6880(zero)
8200037c:	80001ae0 	lb	zero,6880(zero)
82000380:	80001ae0 	lb	zero,6880(zero)
82000384:	80001ae0 	lb	zero,6880(zero)
82000388:	80001ae0 	lb	zero,6880(zero)
8200038c:	80001ae0 	lb	zero,6880(zero)
82000390:	80001ae0 	lb	zero,6880(zero)
82000394:	80001ae0 	lb	zero,6880(zero)
82000398:	80001ae0 	lb	zero,6880(zero)

8200039c <exc_message_causes>:
8200039c:	82000110 	lb	zero,272(s0)
820003a0:	82000138 	lb	zero,312(s0)
820003a4:	82000160 	lb	zero,352(s0)
820003a8:	82000188 	lb	zero,392(s0)
820003ac:	820001b0 	lb	zero,432(s0)
820003b0:	820001d8 	lb	zero,472(s0)
820003b4:	82000200 	lb	zero,512(s0)
820003b8:	82000228 	lb	zero,552(s0)

820003bc <_task_number_array>:
820003bc:	01010101 	0x1010101

820003c0 <_task_context_array>:
	...

820007c0 <_current_task_array>:
820007c0:	00000000 	nop

Disassembly of section seg_kunc:

81000000 <_dma_status>:
	...

81000010 <_dma_busy>:
81000010:	00000000 	nop

81000014 <_ioc_status>:
	...

81000015 <_ioc_done>:
81000015:	0000      	addiu	s0,sp,0
	...

81000018 <_ioc_lock>:
81000018:	00000000 	nop

8100001c <_tty_get_buf>:
8100001c:	00000000 	nop

81000020 <_tty_get_full>:
81000020:	00000000 	nop

81000024 <_barrier_initial_value>:
	...

81000044 <_barrier_count>:
	...

Disassembly of section .reginfo:

00000000 <.reginfo>:
   0:	3c000000 	lui	zero,0x0
	...

Disassembly of section .pdr:

00000000 <.pdr>:
   0:	80000400 	lb	zero,1024(zero)
   4:	40000000 	mfc0	zero,c0_index
   8:	fffffffc 	sdc3	$31,-4(ra)
	...
  14:	00000018 	mult	zero,zero
  18:	0000001e 	0x1e
  1c:	0000001f 	0x1f
  20:	800004f0 	lb	zero,1264(zero)
  24:	40000000 	mfc0	zero,c0_index
  28:	fffffffc 	sdc3	$31,-4(ra)
	...
  34:	00000010 	mfhi	zero
  38:	0000001e 	0x1e
  3c:	0000001f 	0x1f
  40:	80000520 	lb	zero,1312(zero)
  44:	40000000 	mfc0	zero,c0_index
  48:	fffffffc 	sdc3	$31,-4(ra)
	...
  54:	00000010 	mfhi	zero
  58:	0000001e 	0x1e
  5c:	0000001f 	0x1f
  60:	8000054c 	lb	zero,1356(zero)
  64:	c0000000 	ll	zero,0(zero)
  68:	fffffffc 	sdc3	$31,-4(ra)
	...
  74:	00000020 	add	zero,zero,zero
  78:	0000001e 	0x1e
  7c:	0000001f 	0x1f
  80:	800005d8 	lb	zero,1496(zero)
  84:	c0000000 	ll	zero,0(zero)
  88:	fffffffc 	sdc3	$31,-4(ra)
	...
  94:	00000020 	add	zero,zero,zero
  98:	0000001e 	0x1e
  9c:	0000001f 	0x1f
  a0:	80000668 	lb	zero,1640(zero)
  a4:	40000000 	mfc0	zero,c0_index
  a8:	fffffffc 	sdc3	$31,-4(ra)
	...
  b4:	00000008 	jr	zero
  b8:	0000001e 	0x1e
  bc:	0000001f 	0x1f
  c0:	80000700 	lb	zero,1792(zero)
  c4:	c0000000 	ll	zero,0(zero)
  c8:	fffffffc 	sdc3	$31,-4(ra)
	...
  d4:	00000030 	tge	zero,zero
  d8:	0000001e 	0x1e
  dc:	0000001f 	0x1f
  e0:	80000840 	lb	zero,2112(zero)
  e4:	c0000000 	ll	zero,0(zero)
  e8:	fffffffc 	sdc3	$31,-4(ra)
	...
  f4:	00000028 	0x28
  f8:	0000001e 	0x1e
  fc:	0000001f 	0x1f
 100:	80000960 	lb	zero,2400(zero)
 104:	c0000000 	ll	zero,0(zero)
 108:	fffffffc 	sdc3	$31,-4(ra)
	...
 114:	00000028 	0x28
 118:	0000001e 	0x1e
 11c:	0000001f 	0x1f
 120:	80000a74 	lb	zero,2676(zero)
 124:	c0000000 	ll	zero,0(zero)
 128:	fffffffc 	sdc3	$31,-4(ra)
	...
 134:	00000020 	add	zero,zero,zero
 138:	0000001e 	0x1e
 13c:	0000001f 	0x1f
 140:	80000b00 	lb	zero,2816(zero)
 144:	c0000000 	ll	zero,0(zero)
 148:	fffffffc 	sdc3	$31,-4(ra)
	...
 154:	00000020 	add	zero,zero,zero
 158:	0000001e 	0x1e
 15c:	0000001f 	0x1f
 160:	80000b90 	lb	zero,2960(zero)
 164:	40000000 	mfc0	zero,c0_index
 168:	fffffffc 	sdc3	$31,-4(ra)
	...
 174:	00000010 	mfhi	zero
 178:	0000001e 	0x1e
 17c:	0000001f 	0x1f
 180:	80000bfc 	lb	zero,3068(zero)
 184:	40000000 	mfc0	zero,c0_index
 188:	fffffffc 	sdc3	$31,-4(ra)
	...
 194:	00000010 	mfhi	zero
 198:	0000001e 	0x1e
 19c:	0000001f 	0x1f
 1a0:	80000c6c 	lb	zero,3180(zero)
 1a4:	40010000 	mfc0	at,c0_index
 1a8:	fffffffc 	sdc3	$31,-4(ra)
	...
 1b4:	00000008 	jr	zero
 1b8:	0000001e 	0x1e
 1bc:	0000001f 	0x1f
 1c0:	80000cbc 	lb	zero,3260(zero)
 1c4:	c0000000 	ll	zero,0(zero)
 1c8:	fffffffc 	sdc3	$31,-4(ra)
	...
 1d4:	00000020 	add	zero,zero,zero
 1d8:	0000001e 	0x1e
 1dc:	0000001f 	0x1f
 1e0:	80000d94 	lb	zero,3476(zero)
 1e4:	c0000000 	ll	zero,0(zero)
 1e8:	fffffffc 	sdc3	$31,-4(ra)
	...
 1f4:	00000020 	add	zero,zero,zero
 1f8:	0000001e 	0x1e
 1fc:	0000001f 	0x1f
 200:	80000e6c 	lb	zero,3692(zero)
 204:	40000000 	mfc0	zero,c0_index
 208:	fffffffc 	sdc3	$31,-4(ra)
	...
 214:	00000010 	mfhi	zero
 218:	0000001e 	0x1e
 21c:	0000001f 	0x1f
 220:	80000f04 	lb	zero,3844(zero)
 224:	c0000000 	ll	zero,0(zero)
 228:	fffffffc 	sdc3	$31,-4(ra)
	...
 234:	00000020 	add	zero,zero,zero
 238:	0000001e 	0x1e
 23c:	0000001f 	0x1f
 240:	80000f90 	lb	zero,3984(zero)
 244:	c0000000 	ll	zero,0(zero)
 248:	fffffffc 	sdc3	$31,-4(ra)
	...
 254:	00000020 	add	zero,zero,zero
 258:	0000001e 	0x1e
 25c:	0000001f 	0x1f
 260:	8000101c 	lb	zero,4124(zero)
 264:	c0000000 	ll	zero,0(zero)
 268:	fffffffc 	sdc3	$31,-4(ra)
	...
 274:	00000030 	tge	zero,zero
 278:	0000001e 	0x1e
 27c:	0000001f 	0x1f
 280:	80001174 	lb	zero,4468(zero)
 284:	c0000000 	ll	zero,0(zero)
 288:	fffffffc 	sdc3	$31,-4(ra)
	...
 294:	00000030 	tge	zero,zero
 298:	0000001e 	0x1e
 29c:	0000001f 	0x1f
 2a0:	800012cc 	lb	zero,4812(zero)
 2a4:	c0000000 	ll	zero,0(zero)
 2a8:	fffffffc 	sdc3	$31,-4(ra)
	...
 2b4:	00000020 	add	zero,zero,zero
 2b8:	0000001e 	0x1e
 2bc:	0000001f 	0x1f
 2c0:	8000135c 	lb	zero,4956(zero)
 2c4:	c0000000 	ll	zero,0(zero)
 2c8:	fffffffc 	sdc3	$31,-4(ra)
	...
 2d4:	00000020 	add	zero,zero,zero
 2d8:	0000001e 	0x1e
 2dc:	0000001f 	0x1f
 2e0:	800013d0 	lb	zero,5072(zero)
 2e4:	c0000000 	ll	zero,0(zero)
 2e8:	fffffffc 	sdc3	$31,-4(ra)
	...
 2f4:	00000048 	0x48
 2f8:	0000001e 	0x1e
 2fc:	0000001f 	0x1f
 300:	800014e4 	lb	zero,5348(zero)
 304:	40000000 	mfc0	zero,c0_index
 308:	fffffffc 	sdc3	$31,-4(ra)
	...
 314:	00000018 	mult	zero,zero
 318:	0000001e 	0x1e
 31c:	0000001f 	0x1f
 320:	80001578 	lb	zero,5496(zero)
 324:	40000000 	mfc0	zero,c0_index
 328:	fffffffc 	sdc3	$31,-4(ra)
	...
 334:	00000010 	mfhi	zero
 338:	0000001e 	0x1e
 33c:	0000001f 	0x1f
 340:	80001678 	lb	zero,5752(zero)
 344:	40000000 	mfc0	zero,c0_index
 348:	fffffffc 	sdc3	$31,-4(ra)
	...
 354:	00000010 	mfhi	zero
 358:	0000001e 	0x1e
 35c:	0000001f 	0x1f
 360:	80001708 	lb	zero,5896(zero)
 364:	40000000 	mfc0	zero,c0_index
 368:	fffffffc 	sdc3	$31,-4(ra)
	...
 374:	00000010 	mfhi	zero
 378:	0000001e 	0x1e
 37c:	0000001f 	0x1f
 380:	800017b0 	lb	zero,6064(zero)
 384:	40000000 	mfc0	zero,c0_index
 388:	fffffffc 	sdc3	$31,-4(ra)
	...
 394:	00000018 	mult	zero,zero
 398:	0000001e 	0x1e
 39c:	0000001f 	0x1f
 3a0:	80001880 	lb	zero,6272(zero)
 3a4:	c0000000 	ll	zero,0(zero)
 3a8:	fffffffc 	sdc3	$31,-4(ra)
	...
 3b4:	00000030 	tge	zero,zero
 3b8:	0000001e 	0x1e
 3bc:	0000001f 	0x1f
 3c0:	80001994 	lb	zero,6548(zero)
 3c4:	40000000 	mfc0	zero,c0_index
 3c8:	fffffffc 	sdc3	$31,-4(ra)
	...
 3d4:	00000010 	mfhi	zero
 3d8:	0000001e 	0x1e
 3dc:	0000001f 	0x1f
 3e0:	800019c0 	lb	zero,6592(zero)
 3e4:	c0000000 	ll	zero,0(zero)
 3e8:	fffffffc 	sdc3	$31,-4(ra)
	...
 3f4:	00000020 	add	zero,zero,zero
 3f8:	0000001e 	0x1e
 3fc:	0000001f 	0x1f
 400:	80001a34 	lb	zero,6708(zero)
 404:	40000000 	mfc0	zero,c0_index
 408:	fffffffc 	sdc3	$31,-4(ra)
	...
 414:	00000008 	jr	zero
 418:	0000001e 	0x1e
 41c:	0000001f 	0x1f
 420:	80001a58 	lb	zero,6744(zero)
 424:	c0000000 	ll	zero,0(zero)
 428:	fffffffc 	sdc3	$31,-4(ra)
	...
 434:	00000020 	add	zero,zero,zero
 438:	0000001e 	0x1e
 43c:	0000001f 	0x1f
 440:	80001ae0 	lb	zero,6880(zero)
 444:	c0000000 	ll	zero,0(zero)
 448:	fffffffc 	sdc3	$31,-4(ra)
	...
 454:	00000018 	mult	zero,zero
 458:	0000001e 	0x1e
 45c:	0000001f 	0x1f
 460:	80001b1c 	lb	zero,6940(zero)
 464:	c0000000 	ll	zero,0(zero)
 468:	fffffffc 	sdc3	$31,-4(ra)
	...
 474:	00000020 	add	zero,zero,zero
 478:	0000001e 	0x1e
 47c:	0000001f 	0x1f
 480:	80001bac 	lb	zero,7084(zero)
 484:	40000000 	mfc0	zero,c0_index
 488:	fffffffc 	sdc3	$31,-4(ra)
	...
 494:	00000010 	mfhi	zero
 498:	0000001e 	0x1e
 49c:	0000001f 	0x1f
 4a0:	80001c00 	lb	zero,7168(zero)
 4a4:	c0000000 	ll	zero,0(zero)
 4a8:	fffffffc 	sdc3	$31,-4(ra)
	...
 4b4:	00000028 	0x28
 4b8:	0000001e 	0x1e
 4bc:	0000001f 	0x1f
 4c0:	80001cb4 	lb	zero,7348(zero)
 4c4:	c0000000 	ll	zero,0(zero)
 4c8:	fffffffc 	sdc3	$31,-4(ra)
	...
 4d4:	00000028 	0x28
 4d8:	0000001e 	0x1e
 4dc:	0000001f 	0x1f
 4e0:	80001d64 	lb	zero,7524(zero)
 4e4:	c0000000 	ll	zero,0(zero)
 4e8:	fffffffc 	sdc3	$31,-4(ra)
	...
 4f4:	00000018 	mult	zero,zero
 4f8:	0000001e 	0x1e
 4fc:	0000001f 	0x1f
 500:	80001d9c 	lb	zero,7580(zero)
 504:	c0000000 	ll	zero,0(zero)
 508:	fffffffc 	sdc3	$31,-4(ra)
	...
 514:	00000018 	mult	zero,zero
 518:	0000001e 	0x1e
 51c:	0000001f 	0x1f
 520:	80001dd4 	lb	zero,7636(zero)
 524:	c0000000 	ll	zero,0(zero)
 528:	fffffffc 	sdc3	$31,-4(ra)
	...
 534:	00000018 	mult	zero,zero
 538:	0000001e 	0x1e
 53c:	0000001f 	0x1f
 540:	80001e0c 	lb	zero,7692(zero)
 544:	c0000000 	ll	zero,0(zero)
 548:	fffffffc 	sdc3	$31,-4(ra)
	...
 554:	00000018 	mult	zero,zero
 558:	0000001e 	0x1e
 55c:	0000001f 	0x1f
 560:	80001e44 	lb	zero,7748(zero)
 564:	c0000000 	ll	zero,0(zero)
 568:	fffffffc 	sdc3	$31,-4(ra)
	...
 574:	00000018 	mult	zero,zero
 578:	0000001e 	0x1e
 57c:	0000001f 	0x1f
 580:	80001e7c 	lb	zero,7804(zero)
 584:	c0000000 	ll	zero,0(zero)
 588:	fffffffc 	sdc3	$31,-4(ra)
	...
 594:	00000020 	add	zero,zero,zero
 598:	0000001e 	0x1e
 59c:	0000001f 	0x1f
 5a0:	80001ee0 	lb	zero,7904(zero)
 5a4:	40000000 	mfc0	zero,c0_index
 5a8:	fffffffc 	sdc3	$31,-4(ra)
	...
 5b4:	00000010 	mfhi	zero
 5b8:	0000001e 	0x1e
 5bc:	0000001f 	0x1f
 5c0:	80001f0c 	lb	zero,7948(zero)
 5c4:	40000000 	mfc0	zero,c0_index
 5c8:	fffffffc 	sdc3	$31,-4(ra)
	...
 5d4:	00000010 	mfhi	zero
 5d8:	0000001e 	0x1e
 5dc:	0000001f 	0x1f
 5e0:	80001f38 	lb	zero,7992(zero)
 5e4:	40000000 	mfc0	zero,c0_index
 5e8:	fffffffc 	sdc3	$31,-4(ra)
	...
 5f4:	00000010 	mfhi	zero
 5f8:	0000001e 	0x1e
 5fc:	0000001f 	0x1f
 600:	80001f64 	lb	zero,8036(zero)
 604:	c0000000 	ll	zero,0(zero)
 608:	fffffffc 	sdc3	$31,-4(ra)
	...
 614:	00000028 	0x28
 618:	0000001e 	0x1e
 61c:	0000001f 	0x1f
 620:	80002070 	lb	zero,8304(zero)
 624:	c0000000 	ll	zero,0(zero)
 628:	fffffffc 	sdc3	$31,-4(ra)
	...
 634:	00000018 	mult	zero,zero
 638:	0000001e 	0x1e
 63c:	0000001f 	0x1f
 640:	800020a8 	lb	zero,8360(zero)
 644:	c0000000 	ll	zero,0(zero)
 648:	fffffffc 	sdc3	$31,-4(ra)
	...
 654:	00000018 	mult	zero,zero
 658:	0000001e 	0x1e
 65c:	0000001f 	0x1f
 660:	800020e0 	lb	zero,8416(zero)
 664:	c0000000 	ll	zero,0(zero)
 668:	fffffffc 	sdc3	$31,-4(ra)
	...
 674:	00000018 	mult	zero,zero
 678:	0000001e 	0x1e
 67c:	0000001f 	0x1f
 680:	80002118 	lb	zero,8472(zero)
 684:	c0000000 	ll	zero,0(zero)
 688:	fffffffc 	sdc3	$31,-4(ra)
	...
 694:	00000018 	mult	zero,zero
 698:	0000001e 	0x1e
 69c:	0000001f 	0x1f
 6a0:	80002150 	lb	zero,8528(zero)
 6a4:	c0000000 	ll	zero,0(zero)
 6a8:	fffffffc 	sdc3	$31,-4(ra)
	...
 6b4:	00000018 	mult	zero,zero
 6b8:	0000001e 	0x1e
 6bc:	0000001f 	0x1f
 6c0:	80002188 	lb	zero,8584(zero)
 6c4:	c0000000 	ll	zero,0(zero)
 6c8:	fffffffc 	sdc3	$31,-4(ra)
	...
 6d4:	00000018 	mult	zero,zero
 6d8:	0000001e 	0x1e
 6dc:	0000001f 	0x1f
 6e0:	800021c0 	lb	zero,8640(zero)
 6e4:	c0000000 	ll	zero,0(zero)
 6e8:	fffffffc 	sdc3	$31,-4(ra)
	...
 6f4:	00000018 	mult	zero,zero
 6f8:	0000001e 	0x1e
 6fc:	0000001f 	0x1f
 700:	800021f8 	lb	zero,8696(zero)
 704:	c0000000 	ll	zero,0(zero)
 708:	fffffffc 	sdc3	$31,-4(ra)
	...
 714:	00000018 	mult	zero,zero
 718:	0000001e 	0x1e
 71c:	0000001f 	0x1f
 720:	80002230 	lb	zero,8752(zero)
 724:	c0000000 	ll	zero,0(zero)
 728:	fffffffc 	sdc3	$31,-4(ra)
	...
 734:	00000018 	mult	zero,zero
 738:	0000001e 	0x1e
 73c:	0000001f 	0x1f

Disassembly of section .gnu.attributes:

00000000 <.gnu.attributes>:
   0:	00000f41 	0xf41
   4:	756e6700 	jalx	5b99c00 <seg_stack_base+0x3b99c00>
   8:	00070100 	sll	zero,a3,0x4
   c:	01040000 	0x1040000

Disassembly of section .comment:

00000000 <.comment>:
   0:	3a434347 	xori	v1,s2,0x4347
   4:	4e472820 	c3	0x472820
   8:	38202955 	xori	zero,at,0x2955
   c:	302e322e 	andi	t6,at,0x322e
	...
